EXPORTS
 "_websocket_wsAppendHeader"
 "_websocket_wsClose"
 "_websocket_wsConnect"
 "_websocket_wsCreate"
 "_websocket_wsPoll"
 "_websocket_wsReset"
 "_websocket_wsRestart"
 "_websocket_wsSend"
 "_websocket_wsState"
 "_websocket_wsStopped"
 "_websocket_wsUpdateLogChannels"
 "_Z19string_to_try_errorRKSs"
 "_Z31exception_to_condition_templateIN4Rcpp9exceptionEEP7SEXPRECRKT_b"
 "_Z31exception_to_condition_templateISt9exceptionEP7SEXPRECRKT_b"
 "_ZGVZ11stack_tracePKciE3fun"
 "_ZGVZ20rcpp_get_stack_tracevE3fun"
 "_ZGVZ20rcpp_set_stack_traceP7SEXPRECE3fun"
 "_ZGVZ7dataptrP7SEXPRECE3fun"
 "_ZGVZ8demangleRKSsE3fun"
 "_ZGVZN4Rcpp8internal12exitRNGScopeEvE3fun"
 "_ZGVZN4Rcpp8internal13enterRNGScopeEvE3fun"
 "_ZN10tinyformat6detail10formatImplERSoPKcPKNS0_9FormatArgEi"
 "_ZN10tinyformat6detail15formatTruncatedIiEEvRSoRKT_i"
 "_ZN10tinyformat6detail21streamStateFromFormatERSoRbRiPKcPKNS0_9FormatArgES3_i"
 "_ZN10tinyformat6detail9FormatArg10formatImplIiEEvRSoPKcS5_iPKv"
 "_ZN10tinyformat6detail9FormatArg10formatImplIPKcEEvRSoS4_S4_iPKv"
 "_ZN10tinyformat6detail9FormatArg9toIntImplIiEEiPKv"
 "_ZN10tinyformat6detail9FormatArg9toIntImplIPKcEEiPKv"
 "_ZN10tinyformat6formatIIEEESsPKcDpRKT_"
 "_ZN10tinyformat6formatIIPKcEEESsS2_DpRKT_"
 "_ZN10tinyformat6formatIIPKciEEESsS2_DpRKT_"
 "_ZN4Rcpp10eval_errorD0Ev"
 "_ZN4Rcpp10eval_errorD1Ev"
 "_ZN4Rcpp10RstreambufILb0EE4syncEv"
 "_ZN4Rcpp10RstreambufILb0EE6xsputnEPKcx"
 "_ZN4Rcpp10RstreambufILb0EE8overflowEi"
 "_ZN4Rcpp10RstreambufILb0EED0Ev"
 "_ZN4Rcpp10RstreambufILb0EED1Ev"
 "_ZN4Rcpp10RstreambufILb1EE4syncEv"
 "_ZN4Rcpp10RstreambufILb1EE6xsputnEPKcx"
 "_ZN4Rcpp10RstreambufILb1EE8overflowEi"
 "_ZN4Rcpp10RstreambufILb1EED0Ev"
 "_ZN4Rcpp10RstreambufILb1EED1Ev"
 "_ZN4Rcpp14not_compatibleC1IIPKcEEES3_DpOT_"
 "_ZN4Rcpp14not_compatibleD0Ev"
 "_ZN4Rcpp14not_compatibleD1Ev"
 "_ZN4Rcpp4stopERKSs"
 "_ZN4Rcpp4stopIIEEEvPKcDpOT_"
 "_ZN4Rcpp6r_castILi16EEEP7SEXPRECS2_"
 "_ZN4Rcpp8internal10resumeJumpEP7SEXPREC"
 "_ZN4Rcpp8internal12exitRNGScopeEv"
 "_ZN4Rcpp8internal3nthEP7SEXPRECi"
 "_ZN4Rcpp8RostreamILb0EED0Ev"
 "_ZN4Rcpp8RostreamILb0EED1Ev"
 "_ZN4Rcpp8RostreamILb1EED0Ev"
 "_ZN4Rcpp8RostreamILb1EED1Ev"
 "_ZN4Rcpp9exceptionC1EPKcb"
 "_ZN4Rcpp9exceptionD0Ev"
 "_ZN4Rcpp9exceptionD1Ev"
 "_ZNK4Rcpp10eval_error4whatEv"
 "_ZNK4Rcpp14not_compatible4whatEv"
 "_ZNK4Rcpp9exception4whatEv"
 "_ZNKSt5ctypeIcE8do_widenEc"
 "_ZNSt15basic_stringbufIcSt11char_traitsIcESaIcEED1Ev"
 "_ZTCN4Rcpp8RostreamILb0EEE0_So"
 "_ZTCN4Rcpp8RostreamILb1EEE0_So"
 "_ZTIN4Rcpp10eval_errorE"
 "_ZTIN4Rcpp10RstreambufILb0EEE"
 "_ZTIN4Rcpp10RstreambufILb1EEE"
 "_ZTIN4Rcpp14not_compatibleE"
 "_ZTIN4Rcpp17LongjumpExceptionE"
 "_ZTIN4Rcpp8internal20InterruptedExceptionE"
 "_ZTIN4Rcpp8RostreamILb0EEE"
 "_ZTIN4Rcpp8RostreamILb1EEE"
 "_ZTIN4Rcpp9exceptionE"
 "_ZTISt9exception"
 "_ZTSN4Rcpp10eval_errorE"
 "_ZTSN4Rcpp10RstreambufILb0EEE"
 "_ZTSN4Rcpp10RstreambufILb1EEE"
 "_ZTSN4Rcpp14not_compatibleE"
 "_ZTSN4Rcpp17LongjumpExceptionE"
 "_ZTSN4Rcpp8internal20InterruptedExceptionE"
 "_ZTSN4Rcpp8RostreamILb0EEE"
 "_ZTSN4Rcpp8RostreamILb1EEE"
 "_ZTSN4Rcpp9exceptionE"
 "_ZTSSt9exception"
 "_ZTTN4Rcpp8RostreamILb0EEE"
 "_ZTTN4Rcpp8RostreamILb1EEE"
 "_ZTv0_n24_N4Rcpp8RostreamILb0EED0Ev"
 "_ZTv0_n24_N4Rcpp8RostreamILb0EED1Ev"
 "_ZTv0_n24_N4Rcpp8RostreamILb1EED0Ev"
 "_ZTv0_n24_N4Rcpp8RostreamILb1EED1Ev"
 "_ZTVN4Rcpp10eval_errorE"
 "_ZTVN4Rcpp10RstreambufILb0EEE"
 "_ZTVN4Rcpp10RstreambufILb1EEE"
 "_ZTVN4Rcpp14not_compatibleE"
 "_ZTVN4Rcpp8RostreamILb0EEE"
 "_ZTVN4Rcpp8RostreamILb1EEE"
 "_ZTVN4Rcpp9exceptionE"
 "_ZZ11stack_tracePKciE3fun"
 "_ZZ20rcpp_get_stack_tracevE3fun"
 "_ZZ20rcpp_set_stack_traceP7SEXPRECE3fun"
 "_ZZ7dataptrP7SEXPRECE3fun"
 "_ZZ8demangleRKSsE3fun"
 "_ZZN4Rcpp8internal12exitRNGScopeEvE3fun"
 "_ZZN4Rcpp8internal13enterRNGScopeEvE3fun"
 "R_init_websocket"
 "_Z10handleFailSt10shared_ptrI12WSConnectionEN4Rcpp13Function_ImplINS2_15PreserveStorageEEESt8weak_ptrIvE"
 "_Z10handleOpenSt10shared_ptrI12WSConnectionEN4Rcpp13Function_ImplINS2_15PreserveStorageEEESt8weak_ptrIvE"
 "_Z11handleCloseSt10shared_ptrI12WSConnectionEN4Rcpp13Function_ImplINS2_15PreserveStorageEEESt8weak_ptrIvE"
 "_Z13handleMessageN4Rcpp13Function_ImplINS_15PreserveStorageEEESt8weak_ptrIvESt10shared_ptrIN14ws_websocketpp14message_buffer7messageINS7_5alloc15con_msg_managerEEEE"
 "_Z13xptrGetClientP7SEXPREC"
 "_Z14client_deleterP7SEXPREC"
 "_Z14wsAppendHeaderP7SEXPRECSsSs"
 "_Z19wsUpdateLogChannelsP7SEXPRECSsSsN4Rcpp6VectorILi16ENS1_15PreserveStorageEEE"
 "_Z6wsPollP7SEXPREC"
 "_Z6wsSendP7SEXPRECS0_"
 "_Z7wsCloseP7SEXPREC"
 "_Z7wsResetP7SEXPREC"
 "_Z7wsStateP7SEXPREC"
 "_Z8wsCreateSsN4Rcpp13Function_ImplINS_15PreserveStorageEEES2_S2_S2_NS_6VectorILi16ES1_EES4_"
 "_Z9wsConnectP7SEXPREC"
 "_Z9wsRestartP7SEXPREC"
 "_Z9wsStoppedP7SEXPREC"
 "_ZGVN4asio3ssl6detail12openssl_initILb1EE9instance_E"
 "_ZGVN4asio6detail10call_stackINS0_14strand_service11strand_implEhE4top_E"
 "_ZGVN4asio6detail10call_stackINS0_14thread_contextENS0_16thread_info_baseEE4top_E"
 "_ZGVN4asio6detail10call_stackINS0_23strand_executor_service11strand_implEhE4top_E"
 "_ZGVN4asio6detail12service_baseINS_21stream_socket_serviceINS_2ip3tcpEEEE2idE"
 "_ZGVN4asio6detail12service_baseINS_22waitable_timer_serviceINSt6chrono3_V212steady_clockENS_11wait_traitsIS5_EEEEE2idE"
 "_ZGVN4asio6detail12service_baseINS_23socket_acceptor_serviceINS_2ip3tcpEEEE2idE"
 "_ZGVN4asio6detail12service_baseINS_2ip16resolver_serviceINS2_3tcpEEEE2idE"
 "_ZGVN4asio6detail12service_baseINS0_14strand_serviceEE2idE"
 "_ZGVN4asio6detail15win_global_implINS_15system_executor12context_implEE8tss_ptr_E"
 "_ZGVN4asio6detail30execution_context_service_baseINS0_12null_reactorEE2idE"
 "_ZGVN4asio6detail30execution_context_service_baseINS0_14select_reactorEE2idE"
 "_ZGVN4asio6detail30execution_context_service_baseINS0_19win_iocp_io_serviceEE2idE"
 "_ZGVN4asio6detail30execution_context_service_baseINS0_9schedulerEE2idE"
 "_ZGVZ11stack_tracePKciE3fun"
 "_ZGVZ20rcpp_set_stack_traceP7SEXPRECE3fun"
 "_ZGVZ7dataptrP7SEXPRECE3fun"
 "_ZGVZN14ws_websocketpp5error12get_categoryEvE8instance"
 "_ZGVZN14ws_websocketpp9processor5error22get_processor_categoryEvE8instance"
 "_ZGVZN14ws_websocketpp9transport4asio5error12get_categoryEvE8instance"
 "_ZGVZN14ws_websocketpp9transport4asio6socket19get_socket_categoryEvE8instance"
 "_ZGVZN14ws_websocketpp9transport5error12get_categoryEvE8instance"
 "_ZGVZN4asio15system_categoryEvE8instance"
 "_ZGVZN4asio3ssl6detail17openssl_init_base8instanceEvE4init"
 "_ZGVZN4asio5error16get_ssl_categoryEvE8instance"
 "_ZGVZN4asio5error17get_misc_categoryEvE8instance"
 "_ZN10ClientImplIN14ws_websocketpp6clientINS0_6config11asio_clientEEEE13append_headerESsSs"
 "_ZN10ClientImplIN14ws_websocketpp6clientINS0_6config11asio_clientEEEE14get_io_serviceEv"
 "_ZN10ClientImplIN14ws_websocketpp6clientINS0_6config11asio_clientEEEE16set_fail_handlerESt8functionIFvSt8weak_ptrIvEEE"
 "_ZN10ClientImplIN14ws_websocketpp6clientINS0_6config11asio_clientEEEE16set_open_handlerESt8functionIFvSt8weak_ptrIvEEE"
 "_ZN10ClientImplIN14ws_websocketpp6clientINS0_6config11asio_clientEEEE16setup_connectionESsRSt10error_code"
 "_ZN10ClientImplIN14ws_websocketpp6clientINS0_6config11asio_clientEEEE17set_close_handlerESt8functionIFvSt8weak_ptrIvEEE"
 "_ZN10ClientImplIN14ws_websocketpp6clientINS0_6config11asio_clientEEEE18set_error_channelsEj"
 "_ZN10ClientImplIN14ws_websocketpp6clientINS0_6config11asio_clientEEEE19set_access_channelsEj"
 "_ZN10ClientImplIN14ws_websocketpp6clientINS0_6config11asio_clientEEEE19set_message_handlerESt8functionIFvSt8weak_ptrIvESt10shared_ptrINS0_14message_buffer7messageINSA_5alloc15con_msg_managerEEEEEE"
 "_ZN10ClientImplIN14ws_websocketpp6clientINS0_6config11asio_clientEEEE19update_log_channelsESsSsN4Rcpp6VectorILi16ENS6_15PreserveStorageEEE"
 "_ZN10ClientImplIN14ws_websocketpp6clientINS0_6config11asio_clientEEEE20clear_error_channelsEj"
 "_ZN10ClientImplIN14ws_websocketpp6clientINS0_6config11asio_clientEEEE20set_tls_init_handlerESt8functionIFSt10shared_ptrIN4asio3ssl7contextEESt8weak_ptrIvEEE"
 "_ZN10ClientImplIN14ws_websocketpp6clientINS0_6config11asio_clientEEEE21clear_access_channelsEj"
 "_ZN10ClientImplIN14ws_websocketpp6clientINS0_6config11asio_clientEEEE4pollEv"
 "_ZN10ClientImplIN14ws_websocketpp6clientINS0_6config11asio_clientEEEE4sendEPKvyNS0_5frame6opcode5valueE"
 "_ZN10ClientImplIN14ws_websocketpp6clientINS0_6config11asio_clientEEEE4sendERKSsNS0_5frame6opcode5valueE"
 "_ZN10ClientImplIN14ws_websocketpp6clientINS0_6config11asio_clientEEEE5closeEtRKSs"
 "_ZN10ClientImplIN14ws_websocketpp6clientINS0_6config11asio_clientEEEE5resetEv"
 "_ZN10ClientImplIN14ws_websocketpp6clientINS0_6config11asio_clientEEEE7connectEv"
 "_ZN10ClientImplIN14ws_websocketpp6clientINS0_6config11asio_clientEEEE7run_oneEv"
 "_ZN10ClientImplIN14ws_websocketpp6clientINS0_6config11asio_clientEEEE7stoppedEv"
 "_ZN10ClientImplIN14ws_websocketpp6clientINS0_6config11asio_clientEEEE9init_asioEv"
 "_ZN10ClientImplIN14ws_websocketpp6clientINS0_6config15asio_tls_clientEEEE13append_headerESsSs"
 "_ZN10ClientImplIN14ws_websocketpp6clientINS0_6config15asio_tls_clientEEEE14get_io_serviceEv"
 "_ZN10ClientImplIN14ws_websocketpp6clientINS0_6config15asio_tls_clientEEEE16set_fail_handlerESt8functionIFvSt8weak_ptrIvEEE"
 "_ZN10ClientImplIN14ws_websocketpp6clientINS0_6config15asio_tls_clientEEEE16set_open_handlerESt8functionIFvSt8weak_ptrIvEEE"
 "_ZN10ClientImplIN14ws_websocketpp6clientINS0_6config15asio_tls_clientEEEE16setup_connectionESsRSt10error_code"
 "_ZN10ClientImplIN14ws_websocketpp6clientINS0_6config15asio_tls_clientEEEE17set_close_handlerESt8functionIFvSt8weak_ptrIvEEE"
 "_ZN10ClientImplIN14ws_websocketpp6clientINS0_6config15asio_tls_clientEEEE18set_error_channelsEj"
 "_ZN10ClientImplIN14ws_websocketpp6clientINS0_6config15asio_tls_clientEEEE19set_access_channelsEj"
 "_ZN10ClientImplIN14ws_websocketpp6clientINS0_6config15asio_tls_clientEEEE19set_message_handlerESt8functionIFvSt8weak_ptrIvESt10shared_ptrINS0_14message_buffer7messageINSA_5alloc15con_msg_managerEEEEEE"
 "_ZN10ClientImplIN14ws_websocketpp6clientINS0_6config15asio_tls_clientEEEE19update_log_channelsESsSsN4Rcpp6VectorILi16ENS6_15PreserveStorageEEE"
 "_ZN10ClientImplIN14ws_websocketpp6clientINS0_6config15asio_tls_clientEEEE20clear_error_channelsEj"
 "_ZN10ClientImplIN14ws_websocketpp6clientINS0_6config15asio_tls_clientEEEE20set_tls_init_handlerESt8functionIFSt10shared_ptrIN4asio3ssl7contextEESt8weak_ptrIvEEE"
 "_ZN10ClientImplIN14ws_websocketpp6clientINS0_6config15asio_tls_clientEEEE21clear_access_channelsEj"
 "_ZN10ClientImplIN14ws_websocketpp6clientINS0_6config15asio_tls_clientEEEE4pollEv"
 "_ZN10ClientImplIN14ws_websocketpp6clientINS0_6config15asio_tls_clientEEEE4sendEPKvyNS0_5frame6opcode5valueE"
 "_ZN10ClientImplIN14ws_websocketpp6clientINS0_6config15asio_tls_clientEEEE4sendERKSsNS0_5frame6opcode5valueE"
 "_ZN10ClientImplIN14ws_websocketpp6clientINS0_6config15asio_tls_clientEEEE5closeEtRKSs"
 "_ZN10ClientImplIN14ws_websocketpp6clientINS0_6config15asio_tls_clientEEEE5resetEv"
 "_ZN10ClientImplIN14ws_websocketpp6clientINS0_6config15asio_tls_clientEEEE7connectEv"
 "_ZN10ClientImplIN14ws_websocketpp6clientINS0_6config15asio_tls_clientEEEE7run_oneEv"
 "_ZN10ClientImplIN14ws_websocketpp6clientINS0_6config15asio_tls_clientEEEE7stoppedEv"
 "_ZN10ClientImplIN14ws_websocketpp6clientINS0_6config15asio_tls_clientEEEE9init_asioEv"
 "_ZN10tinyformat6detail10formatImplERSoPKcPKNS0_9FormatArgEi"
 "_ZN10tinyformat6detail21streamStateFromFormatERSoRbRiPKcPKNS0_9FormatArgES3_i"
 "_ZN10tinyformat6formatIIEEESsPKcDpRKT_"
 "_ZN14ws_websocketpp10connectionINS_6config11asio_clientEE10get_sharedEv"
 "_ZN14ws_websocketpp10connectionINS_6config11asio_clientEE10read_frameEv"
 "_ZN14ws_websocketpp10connectionINS_6config11asio_clientEE10set_statusENS_4http11status_code5valueE"
 "_ZN14ws_websocketpp10connectionINS_6config11asio_clientEE10write_pushESt10shared_ptrINS_14message_buffer7messageINS5_5alloc15con_msg_managerEEEE"
 "_ZN14ws_websocketpp10connectionINS_6config11asio_clientEE11write_frameEv"
 "_ZN14ws_websocketpp10connectionINS_6config11asio_clientEE13append_headerERKSsS5_"
 "_ZN14ws_websocketpp10connectionINS_6config11asio_clientEE14read_handshakeEy"
 "_ZN14ws_websocketpp10connectionINS_6config11asio_clientEE15log_fail_resultEv"
 "_ZN14ws_websocketpp10connectionINS_6config11asio_clientEE15log_http_resultEv"
 "_ZN14ws_websocketpp10connectionINS_6config11asio_clientEE15log_open_resultEv"
 "_ZN14ws_websocketpp10connectionINS_6config11asio_clientEE16handle_terminateENS3_16terminate_statusERKSt10error_code"
 "_ZN14ws_websocketpp10connectionINS_6config11asio_clientEE16log_close_resultEv"
 "_ZN14ws_websocketpp10connectionINS_6config11asio_clientEE16send_close_frameEtRKSsbb"
 "_ZN14ws_websocketpp10connectionINS_6config11asio_clientEE17handle_read_frameERKSt10error_codey"
 "_ZN14ws_websocketpp10connectionINS_6config11asio_clientEE17send_http_requestEv"
 "_ZN14ws_websocketpp10connectionINS_6config11asio_clientEE18handle_write_frameERKSt10error_code"
 "_ZN14ws_websocketpp10connectionINS_6config11asio_clientEE19write_http_responseERKSt10error_code"
 "_ZN14ws_websocketpp10connectionINS_6config11asio_clientEE20initialize_processorEv"
 "_ZN14ws_websocketpp10connectionINS_6config11asio_clientEE21handle_read_handshakeERKSt10error_codey"
 "_ZN14ws_websocketpp10connectionINS_6config11asio_clientEE21handle_transport_initERKSt10error_code"
 "_ZN14ws_websocketpp10connectionINS_6config11asio_clientEE21process_control_frameESt10shared_ptrINS_14message_buffer7messageINS5_5alloc15con_msg_managerEEEE"
 "_ZN14ws_websocketpp10connectionINS_6config11asio_clientEE24handle_send_http_requestERKSt10error_code"
 "_ZN14ws_websocketpp10connectionINS_6config11asio_clientEE25handle_read_http_responseERKSt10error_codey"
 "_ZN14ws_websocketpp10connectionINS_6config11asio_clientEE25process_handshake_requestEv"
 "_ZN14ws_websocketpp10connectionINS_6config11asio_clientEE25write_http_response_errorERKSt10error_code"
 "_ZN14ws_websocketpp10connectionINS_6config11asio_clientEE26handle_write_http_responseERKSt10error_code"
 "_ZN14ws_websocketpp10connectionINS_6config11asio_clientEE29handle_open_handshake_timeoutERKSt10error_code"
 "_ZN14ws_websocketpp10connectionINS_6config11asio_clientEE30handle_close_handshake_timeoutERKSt10error_code"
 "_ZN14ws_websocketpp10connectionINS_6config11asio_clientEE4pongERKSsRSt10error_code"
 "_ZN14ws_websocketpp10connectionINS_6config11asio_clientEE4sendEPKvyNS_5frame6opcode5valueE"
 "_ZN14ws_websocketpp10connectionINS_6config11asio_clientEE4sendERKSsNS_5frame6opcode5valueE"
 "_ZN14ws_websocketpp10connectionINS_6config11asio_clientEE4sendESt10shared_ptrINS_14message_buffer7messageINS5_5alloc15con_msg_managerEEEE"
 "_ZN14ws_websocketpp10connectionINS_6config11asio_clientEE5closeEtRKSsRSt10error_code"
 "_ZN14ws_websocketpp10connectionINS_6config11asio_clientEE5startEv"
 "_ZN14ws_websocketpp10connectionINS_6config11asio_clientEE7log_errISt10error_codeEEvjPKcRKT_"
 "_ZN14ws_websocketpp10connectionINS_6config11asio_clientEE9terminateERKSt10error_code"
 "_ZN14ws_websocketpp10connectionINS_6config11asio_clientEE9write_popEv"
 "_ZN14ws_websocketpp10connectionINS_6config11asio_clientEEC1EbRKSsRNS_3log5basicINS_11concurrency5basicENS6_6alevelEEERNS7_IS9_NS6_6elevelEEERNS_6random13random_device13int_generatorIjS9_EE"
 "_ZN14ws_websocketpp10connectionINS_6config11asio_clientEED1Ev"
 "_ZN14ws_websocketpp10connectionINS_6config15asio_tls_clientEE10get_sharedEv"
 "_ZN14ws_websocketpp10connectionINS_6config15asio_tls_clientEE10read_frameEv"
 "_ZN14ws_websocketpp10connectionINS_6config15asio_tls_clientEE10set_statusENS_4http11status_code5valueE"
 "_ZN14ws_websocketpp10connectionINS_6config15asio_tls_clientEE10write_pushESt10shared_ptrINS_14message_buffer7messageINS5_5alloc15con_msg_managerEEEE"
 "_ZN14ws_websocketpp10connectionINS_6config15asio_tls_clientEE11write_frameEv"
 "_ZN14ws_websocketpp10connectionINS_6config15asio_tls_clientEE13append_headerERKSsS5_"
 "_ZN14ws_websocketpp10connectionINS_6config15asio_tls_clientEE14read_handshakeEy"
 "_ZN14ws_websocketpp10connectionINS_6config15asio_tls_clientEE15log_fail_resultEv"
 "_ZN14ws_websocketpp10connectionINS_6config15asio_tls_clientEE15log_http_resultEv"
 "_ZN14ws_websocketpp10connectionINS_6config15asio_tls_clientEE15log_open_resultEv"
 "_ZN14ws_websocketpp10connectionINS_6config15asio_tls_clientEE16handle_terminateENS3_16terminate_statusERKSt10error_code"
 "_ZN14ws_websocketpp10connectionINS_6config15asio_tls_clientEE16log_close_resultEv"
 "_ZN14ws_websocketpp10connectionINS_6config15asio_tls_clientEE16send_close_frameEtRKSsbb"
 "_ZN14ws_websocketpp10connectionINS_6config15asio_tls_clientEE17handle_read_frameERKSt10error_codey"
 "_ZN14ws_websocketpp10connectionINS_6config15asio_tls_clientEE17send_http_requestEv"
 "_ZN14ws_websocketpp10connectionINS_6config15asio_tls_clientEE18handle_write_frameERKSt10error_code"
 "_ZN14ws_websocketpp10connectionINS_6config15asio_tls_clientEE19write_http_responseERKSt10error_code"
 "_ZN14ws_websocketpp10connectionINS_6config15asio_tls_clientEE20initialize_processorEv"
 "_ZN14ws_websocketpp10connectionINS_6config15asio_tls_clientEE21handle_read_handshakeERKSt10error_codey"
 "_ZN14ws_websocketpp10connectionINS_6config15asio_tls_clientEE21handle_transport_initERKSt10error_code"
 "_ZN14ws_websocketpp10connectionINS_6config15asio_tls_clientEE21process_control_frameESt10shared_ptrINS_14message_buffer7messageINS5_5alloc15con_msg_managerEEEE"
 "_ZN14ws_websocketpp10connectionINS_6config15asio_tls_clientEE24handle_send_http_requestERKSt10error_code"
 "_ZN14ws_websocketpp10connectionINS_6config15asio_tls_clientEE25handle_read_http_responseERKSt10error_codey"
 "_ZN14ws_websocketpp10connectionINS_6config15asio_tls_clientEE25process_handshake_requestEv"
 "_ZN14ws_websocketpp10connectionINS_6config15asio_tls_clientEE25write_http_response_errorERKSt10error_code"
 "_ZN14ws_websocketpp10connectionINS_6config15asio_tls_clientEE26handle_write_http_responseERKSt10error_code"
 "_ZN14ws_websocketpp10connectionINS_6config15asio_tls_clientEE29handle_open_handshake_timeoutERKSt10error_code"
 "_ZN14ws_websocketpp10connectionINS_6config15asio_tls_clientEE30handle_close_handshake_timeoutERKSt10error_code"
 "_ZN14ws_websocketpp10connectionINS_6config15asio_tls_clientEE4pongERKSsRSt10error_code"
 "_ZN14ws_websocketpp10connectionINS_6config15asio_tls_clientEE4sendEPKvyNS_5frame6opcode5valueE"
 "_ZN14ws_websocketpp10connectionINS_6config15asio_tls_clientEE4sendERKSsNS_5frame6opcode5valueE"
 "_ZN14ws_websocketpp10connectionINS_6config15asio_tls_clientEE4sendESt10shared_ptrINS_14message_buffer7messageINS5_5alloc15con_msg_managerEEEE"
 "_ZN14ws_websocketpp10connectionINS_6config15asio_tls_clientEE5closeEtRKSsRSt10error_code"
 "_ZN14ws_websocketpp10connectionINS_6config15asio_tls_clientEE5startEv"
 "_ZN14ws_websocketpp10connectionINS_6config15asio_tls_clientEE7log_errISt10error_codeEEvjPKcRKT_"
 "_ZN14ws_websocketpp10connectionINS_6config15asio_tls_clientEE9terminateERKSt10error_code"
 "_ZN14ws_websocketpp10connectionINS_6config15asio_tls_clientEE9write_popEv"
 "_ZN14ws_websocketpp10connectionINS_6config15asio_tls_clientEEC1EbRKSsRNS_3log5basicINS_11concurrency5basicENS6_6alevelEEERNS7_IS9_NS6_6elevelEEERNS_6random13random_device13int_generatorIjS9_EE"
 "_ZN14ws_websocketpp10connectionINS_6config15asio_tls_clientEED1Ev"
 "_ZN14ws_websocketpp13base64_encodeEPKhy"
 "_ZN14ws_websocketpp14message_buffer5alloc15con_msg_managerINS0_7messageIS2_EEE11get_messageENS_5frame6opcode5valueEy"
 "_ZN14ws_websocketpp14message_buffer5alloc15con_msg_managerINS0_7messageIS2_EEE11get_messageEv"
 "_ZN14ws_websocketpp14utf8_validator8validateERKSs"
 "_ZN14ws_websocketpp3log5basicINS_11concurrency5basicENS0_6alevelEE5writeEjPKc"
 "_ZN14ws_websocketpp3log5basicINS_11concurrency5basicENS0_6alevelEE5writeEjRKSs"
 "_ZN14ws_websocketpp3log5basicINS_11concurrency5basicENS0_6elevelEE5writeEjPKc"
 "_ZN14ws_websocketpp3log5basicINS_11concurrency5basicENS0_6elevelEE5writeEjRKSs"
 "_ZN14ws_websocketpp3md510md5_appendEPNS0_11md5_state_sEPKhy"
 "_ZN14ws_websocketpp3md515md5_hash_stringERKSs"
 "_ZN14ws_websocketpp3uriC1ERKSs"
 "_ZN14ws_websocketpp4http11status_code10get_stringENS1_5valueE"
 "_ZN14ws_websocketpp4http17is_not_token_charEh"
 "_ZN14ws_websocketpp4http22is_not_whitespace_charEh"
 "_ZN14ws_websocketpp4http6parser13extract_tokenIN9__gnu_cxx17__normal_iteratorIPKcSsEEEESt4pairISsT_ES9_S9_"
 "_ZN14ws_websocketpp4http6parser15extract_all_lwsIN9__gnu_cxx17__normal_iteratorIPKcSsEEEET_S8_S8_"
 "_ZN14ws_websocketpp4http6parser15extract_all_lwsISt16reverse_iteratorIN9__gnu_cxx17__normal_iteratorIPKcSsEEEEET_SA_SA_"
 "_ZN14ws_websocketpp4http6parser18extract_attributesIN9__gnu_cxx17__normal_iteratorIPKcSsEEEET_S8_S8_RSt3mapISsSsSt4lessISsESaISt4pairIKSsSsEEE"
 "_ZN14ws_websocketpp4http6parser18extract_parametersIN9__gnu_cxx17__normal_iteratorIPKcSsEEEET_S8_S8_RSt6vectorISt4pairISsSt3mapISsSsSt4lessISsESaISA_IKSsSsEEEESaISI_EE"
 "_ZN14ws_websocketpp4http6parser21extract_quoted_stringIN9__gnu_cxx17__normal_iteratorIPKcSsEEEESt4pairISsT_ES9_S9_"
 "_ZN14ws_websocketpp4http6parser6parser12prepare_bodyEv"
 "_ZN14ws_websocketpp4http6parser6parser12process_bodyEPKcy"
 "_ZN14ws_websocketpp4http6parser6parser13append_headerERKSsS4_"
 "_ZN14ws_websocketpp4http6parser6parser14process_headerEN9__gnu_cxx17__normal_iteratorIPcSsEES6_"
 "_ZN14ws_websocketpp4http6parser6parserD2Ev"
 "_ZN14ws_websocketpp4http6parser7request10set_methodERKSs"
 "_ZN14ws_websocketpp4http6parser7request7consumeEPKcy"
 "_ZN14ws_websocketpp4http6parser7request7processEN9__gnu_cxx17__normal_iteratorIPcSsEES6_"
 "_ZN14ws_websocketpp4http6parser7requestC1Ev"
 "_ZN14ws_websocketpp4http6parser7requestD1Ev"
 "_ZN14ws_websocketpp4http6parser8response10set_statusENS0_11status_code5valueE"
 "_ZN14ws_websocketpp4http6parser8response7consumeEPKcy"
 "_ZN14ws_websocketpp4http6parser8response7consumeERSi"
 "_ZN14ws_websocketpp4http6parser8response7processEN9__gnu_cxx17__normal_iteratorIPcSsEES6_"
 "_ZN14ws_websocketpp4http6parser8responseC1Ev"
 "_ZN14ws_websocketpp4http6parser8responseD1Ev"
 "_ZN14ws_websocketpp4http9exceptionC1ERKSsNS0_11status_code5valueES3_S3_"
 "_ZN14ws_websocketpp4http9exceptionD0Ev"
 "_ZN14ws_websocketpp4http9exceptionD1Ev"
 "_ZN14ws_websocketpp4sha14calcEPKvyPh"
 "_ZN14ws_websocketpp5close12extract_codeERKSsRSt10error_code"
 "_ZN14ws_websocketpp5close14extract_reasonERKSsRSt10error_code"
 "_ZN14ws_websocketpp5error12get_categoryEv"
 "_ZN14ws_websocketpp5error8categoryD0Ev"
 "_ZN14ws_websocketpp5error8categoryD1Ev"
 "_ZN14ws_websocketpp5frame14prepare_headerERKNS0_12basic_headerERKNS0_15extended_headerE"
 "_ZN14ws_websocketpp5frame15extended_header12copy_payloadEy"
 "_ZN14ws_websocketpp5frame15get_masking_keyERKNS0_12basic_headerERKNS0_15extended_headerE"
 "_ZN14ws_websocketpp5frame16get_payload_sizeERKNS0_12basic_headerERKNS0_15extended_headerE"
 "_ZN14ws_websocketpp6clientINS_6config11asio_clientEE14handle_connectESt10shared_ptrINS_10connectionIS2_EEERKSt10error_code"
 "_ZN14ws_websocketpp6clientINS_6config15asio_tls_clientEE14handle_connectESt10shared_ptrINS_10connectionIS2_EEERKSt10error_code"
 "_ZN14ws_websocketpp6random13random_device13int_generatorIjNS_11concurrency5basicEEclEv"
 "_ZN14ws_websocketpp7utility14ci_find_substrISsEENT_14const_iteratorERKS2_PKNS2_10value_typeENS2_9size_typeERKSt6locale"
 "_ZN14ws_websocketpp7utility18string_replace_allESsRKSsS2_"
 "_ZN14ws_websocketpp7utility6to_hexEPKhy"
 "_ZN14ws_websocketpp7utility6to_hexERKSs"
 "_ZN14ws_websocketpp7utility8my_equalIcEclEcc"
 "_ZN14ws_websocketpp8endpointINS_10connectionINS_6config11asio_clientEEES3_E17create_connectionEv"
 "_ZN14ws_websocketpp8endpointINS_10connectionINS_6config11asio_clientEEES3_E4sendESt8weak_ptrIvEPKvyNS_5frame6opcode5valueE"
 "_ZN14ws_websocketpp8endpointINS_10connectionINS_6config11asio_clientEEES3_E4sendESt8weak_ptrIvERKSsNS_5frame6opcode5valueE"
 "_ZN14ws_websocketpp8endpointINS_10connectionINS_6config11asio_clientEEES3_E5closeESt8weak_ptrIvEtRKSs"
 "_ZN14ws_websocketpp8endpointINS_10connectionINS_6config11asio_clientEEES3_EC2Eb"
 "_ZN14ws_websocketpp8endpointINS_10connectionINS_6config11asio_clientEEES3_ED2Ev"
 "_ZN14ws_websocketpp8endpointINS_10connectionINS_6config15asio_tls_clientEEES3_E17create_connectionEv"
 "_ZN14ws_websocketpp8endpointINS_10connectionINS_6config15asio_tls_clientEEES3_E4sendESt8weak_ptrIvEPKvyNS_5frame6opcode5valueE"
 "_ZN14ws_websocketpp8endpointINS_10connectionINS_6config15asio_tls_clientEEES3_E4sendESt8weak_ptrIvERKSsNS_5frame6opcode5valueE"
 "_ZN14ws_websocketpp8endpointINS_10connectionINS_6config15asio_tls_clientEEES3_E5closeESt8weak_ptrIvEtRKSs"
 "_ZN14ws_websocketpp8endpointINS_10connectionINS_6config15asio_tls_clientEEES3_EC2Eb"
 "_ZN14ws_websocketpp8endpointINS_10connectionINS_6config15asio_tls_clientEEES3_ED2Ev"
 "_ZN14ws_websocketpp9exceptionC1ERKSsSt10error_code"
 "_ZN14ws_websocketpp9exceptionC1ESt10error_code"
 "_ZN14ws_websocketpp9exceptionD0Ev"
 "_ZN14ws_websocketpp9exceptionD1Ev"
 "_ZN14ws_websocketpp9processor17get_uri_from_hostIKNS_4http6parser7requestEEESt10shared_ptrINS_3uriEERT_Ss"
 "_ZN14ws_websocketpp9processor17get_uri_from_hostINS_4http6parser7requestEEESt10shared_ptrINS_3uriEERT_Ss"
 "_ZN14ws_websocketpp9processor21get_websocket_versionINS_4http6parser7requestEEEiRT_"
 "_ZN14ws_websocketpp9processor22is_websocket_handshakeINS_4http6parser7requestEEEbRT_"
 "_ZN14ws_websocketpp9processor5error18processor_categoryD0Ev"
 "_ZN14ws_websocketpp9processor5error18processor_categoryD1Ev"
 "_ZN14ws_websocketpp9processor5error22get_processor_categoryEv"
 "_ZN14ws_websocketpp9processor6hybi00INS_6config11asio_clientEE11get_messageEv"
 "_ZN14ws_websocketpp9processor6hybi00INS_6config11asio_clientEE18prepare_data_frameESt10shared_ptrINS_14message_buffer7messageINS6_5alloc15con_msg_managerEEEESB_"
 "_ZN14ws_websocketpp9processor6hybi00INS_6config11asio_clientEE20extract_subprotocolsERKNS_4http6parser7requestERSt6vectorISsSaISsEE"
 "_ZN14ws_websocketpp9processor6hybi00INS_6config11asio_clientEE7consumeEPhyRSt10error_code"
 "_ZN14ws_websocketpp9processor6hybi00INS_6config11asio_clientEED0Ev"
 "_ZN14ws_websocketpp9processor6hybi00INS_6config11asio_clientEED1Ev"
 "_ZN14ws_websocketpp9processor6hybi00INS_6config15asio_tls_clientEE11get_messageEv"
 "_ZN14ws_websocketpp9processor6hybi00INS_6config15asio_tls_clientEE18prepare_data_frameESt10shared_ptrINS_14message_buffer7messageINS6_5alloc15con_msg_managerEEEESB_"
 "_ZN14ws_websocketpp9processor6hybi00INS_6config15asio_tls_clientEE20extract_subprotocolsERKNS_4http6parser7requestERSt6vectorISsSaISsEE"
 "_ZN14ws_websocketpp9processor6hybi00INS_6config15asio_tls_clientEE7consumeEPhyRSt10error_code"
 "_ZN14ws_websocketpp9processor6hybi00INS_6config15asio_tls_clientEED0Ev"
 "_ZN14ws_websocketpp9processor6hybi00INS_6config15asio_tls_clientEED1Ev"
 "_ZN14ws_websocketpp9processor6hybi07INS_6config11asio_clientEED0Ev"
 "_ZN14ws_websocketpp9processor6hybi07INS_6config11asio_clientEED1Ev"
 "_ZN14ws_websocketpp9processor6hybi07INS_6config15asio_tls_clientEED0Ev"
 "_ZN14ws_websocketpp9processor6hybi07INS_6config15asio_tls_clientEED1Ev"
 "_ZN14ws_websocketpp9processor6hybi08INS_6config11asio_clientEED0Ev"
 "_ZN14ws_websocketpp9processor6hybi08INS_6config11asio_clientEED1Ev"
 "_ZN14ws_websocketpp9processor6hybi08INS_6config15asio_tls_clientEED0Ev"
 "_ZN14ws_websocketpp9processor6hybi08INS_6config15asio_tls_clientEED1Ev"
 "_ZN14ws_websocketpp9processor6hybi13INS_6config11asio_clientEE11get_messageEv"
 "_ZN14ws_websocketpp9processor6hybi13INS_6config11asio_clientEE18prepare_data_frameESt10shared_ptrINS_14message_buffer7messageINS6_5alloc15con_msg_managerEEEESB_"
 "_ZN14ws_websocketpp9processor6hybi13INS_6config11asio_clientEE20extract_subprotocolsERKNS_4http6parser7requestERSt6vectorISsSaISsEE"
 "_ZN14ws_websocketpp9processor6hybi13INS_6config11asio_clientEE20negotiate_extensionsERKNS_4http6parser7requestE"
 "_ZN14ws_websocketpp9processor6hybi13INS_6config11asio_clientEE20negotiate_extensionsERKNS_4http6parser8responseE"
 "_ZN14ws_websocketpp9processor6hybi13INS_6config11asio_clientEE7consumeEPhyRSt10error_code"
 "_ZN14ws_websocketpp9processor6hybi13INS_6config11asio_clientEED0Ev"
 "_ZN14ws_websocketpp9processor6hybi13INS_6config11asio_clientEED1Ev"
 "_ZN14ws_websocketpp9processor6hybi13INS_6config15asio_tls_clientEE11get_messageEv"
 "_ZN14ws_websocketpp9processor6hybi13INS_6config15asio_tls_clientEE18prepare_data_frameESt10shared_ptrINS_14message_buffer7messageINS6_5alloc15con_msg_managerEEEESB_"
 "_ZN14ws_websocketpp9processor6hybi13INS_6config15asio_tls_clientEE20extract_subprotocolsERKNS_4http6parser7requestERSt6vectorISsSaISsEE"
 "_ZN14ws_websocketpp9processor6hybi13INS_6config15asio_tls_clientEE20negotiate_extensionsERKNS_4http6parser7requestE"
 "_ZN14ws_websocketpp9processor6hybi13INS_6config15asio_tls_clientEE20negotiate_extensionsERKNS_4http6parser8responseE"
 "_ZN14ws_websocketpp9processor6hybi13INS_6config15asio_tls_clientEE7consumeEPhyRSt10error_code"
 "_ZN14ws_websocketpp9processor6hybi13INS_6config15asio_tls_clientEED0Ev"
 "_ZN14ws_websocketpp9processor6hybi13INS_6config15asio_tls_clientEED1Ev"
 "_ZN14ws_websocketpp9processor9processorINS_6config11asio_clientEE20negotiate_extensionsERKNS_4http6parser7requestE"
 "_ZN14ws_websocketpp9processor9processorINS_6config11asio_clientEE20negotiate_extensionsERKNS_4http6parser8responseE"
 "_ZN14ws_websocketpp9processor9processorINS_6config15asio_tls_clientEE20negotiate_extensionsERKNS_4http6parser7requestE"
 "_ZN14ws_websocketpp9processor9processorINS_6config15asio_tls_clientEE20negotiate_extensionsERKNS_4http6parser8responseE"
 "_ZN14ws_websocketpp9transport4asio10connectionINS_6config11asio_client16transport_configEE10get_sharedEv"
 "_ZN14ws_websocketpp9transport4asio10connectionINS_6config11asio_client16transport_configEE10proxy_initERKSs"
 "_ZN14ws_websocketpp9transport4asio10connectionINS_6config11asio_client16transport_configEE11async_writeEPKcySt8functionIFvRKSt10error_codeEE"
 "_ZN14ws_websocketpp9transport4asio10connectionINS_6config11asio_client16transport_configEE11async_writeERKSt6vectorINS0_6bufferESaIS8_EESt8functionIFvRKSt10error_codeEE"
 "_ZN14ws_websocketpp9transport4asio10connectionINS_6config11asio_client16transport_configEE11proxy_writeESt8functionIFvRKSt10error_codeEE"
 "_ZN14ws_websocketpp9transport4asio10connectionINS_6config11asio_client16transport_configEE12handle_timerESt10shared_ptrIN4asio20basic_waitable_timerINSt6chrono3_V212steady_clockENS8_11wait_traitsISC_EENS8_22waitable_timer_serviceISC_SE_EEEEESt8functionIFvRKSt10error_codeEESM_"
 "_ZN14ws_websocketpp9transport4asio10connectionINS_6config11asio_client16transport_configEE14async_shutdownESt8functionIFvRKSt10error_codeEE"
 "_ZN14ws_websocketpp9transport4asio10connectionINS_6config11asio_client16transport_configEE15handle_pre_initESt8functionIFvRKSt10error_codeEESA_"
 "_ZN14ws_websocketpp9transport4asio10connectionINS_6config11asio_client16transport_configEE16handle_post_initESt10shared_ptrIN4asio20basic_waitable_timerINSt6chrono3_V212steady_clockENS8_11wait_traitsISC_EENS8_22waitable_timer_serviceISC_SE_EEEEESt8functionIFvRKSt10error_codeEESM_"
 "_ZN14ws_websocketpp9transport4asio10connectionINS_6config11asio_client16transport_configEE17handle_async_readESt8functionIFvRKSt10error_codeyEESA_y"
 "_ZN14ws_websocketpp9transport4asio10connectionINS_6config11asio_client16transport_configEE17handle_proxy_readESt8functionIFvRKSt10error_codeEESA_y"
 "_ZN14ws_websocketpp9transport4asio10connectionINS_6config11asio_client16transport_configEE18handle_async_writeESt8functionIFvRKSt10error_codeEESA_y"
 "_ZN14ws_websocketpp9transport4asio10connectionINS_6config11asio_client16transport_configEE18handle_proxy_writeESt8functionIFvRKSt10error_codeEESA_"
 "_ZN14ws_websocketpp9transport4asio10connectionINS_6config11asio_client16transport_configEE19async_read_at_leastEyPcySt8functionIFvRKSt10error_codeyEE"
 "_ZN14ws_websocketpp9transport4asio10connectionINS_6config11asio_client16transport_configEE20handle_proxy_timeoutESt8functionIFvRKSt10error_codeEESA_"
 "_ZN14ws_websocketpp9transport4asio10connectionINS_6config11asio_client16transport_configEE21cancel_socket_checkedEv"
 "_ZN14ws_websocketpp9transport4asio10connectionINS_6config11asio_client16transport_configEE21handle_async_shutdownESt10shared_ptrIN4asio20basic_waitable_timerINSt6chrono3_V212steady_clockENS8_11wait_traitsISC_EENS8_22waitable_timer_serviceISC_SE_EEEEESt8functionIFvRKSt10error_codeEESM_"
 "_ZN14ws_websocketpp9transport4asio10connectionINS_6config11asio_client16transport_configEE24handle_post_init_timeoutESt10shared_ptrIN4asio20basic_waitable_timerINSt6chrono3_V212steady_clockENS8_11wait_traitsISC_EENS8_22waitable_timer_serviceISC_SE_EEEEESt8functionIFvRKSt10error_codeEESM_"
 "_ZN14ws_websocketpp9transport4asio10connectionINS_6config11asio_client16transport_configEE29handle_async_shutdown_timeoutESt10shared_ptrIN4asio20basic_waitable_timerINSt6chrono3_V212steady_clockENS8_11wait_traitsISC_EENS8_22waitable_timer_serviceISC_SE_EEEEESt8functionIFvRKSt10error_codeEESM_"
 "_ZN14ws_websocketpp9transport4asio10connectionINS_6config11asio_client16transport_configEE7log_errISt10error_codeEEvjPKcRKT_"
 "_ZN14ws_websocketpp9transport4asio10connectionINS_6config11asio_client16transport_configEE8dispatchESt8functionIFvvEE"
 "_ZN14ws_websocketpp9transport4asio10connectionINS_6config11asio_client16transport_configEE9post_initESt8functionIFvRKSt10error_codeEE"
 "_ZN14ws_websocketpp9transport4asio10connectionINS_6config11asio_client16transport_configEE9set_timerElSt8functionIFvRKSt10error_codeEE"
 "_ZN14ws_websocketpp9transport4asio10connectionINS_6config11asio_client16transport_configEED2Ev"
 "_ZN14ws_websocketpp9transport4asio10connectionINS_6config15asio_tls_client16transport_configEE10get_sharedEv"
 "_ZN14ws_websocketpp9transport4asio10connectionINS_6config15asio_tls_client16transport_configEE10proxy_initERKSs"
 "_ZN14ws_websocketpp9transport4asio10connectionINS_6config15asio_tls_client16transport_configEE11async_writeEPKcySt8functionIFvRKSt10error_codeEE"
 "_ZN14ws_websocketpp9transport4asio10connectionINS_6config15asio_tls_client16transport_configEE11async_writeERKSt6vectorINS0_6bufferESaIS8_EESt8functionIFvRKSt10error_codeEE"
 "_ZN14ws_websocketpp9transport4asio10connectionINS_6config15asio_tls_client16transport_configEE11proxy_writeESt8functionIFvRKSt10error_codeEE"
 "_ZN14ws_websocketpp9transport4asio10connectionINS_6config15asio_tls_client16transport_configEE12handle_timerESt10shared_ptrIN4asio20basic_waitable_timerINSt6chrono3_V212steady_clockENS8_11wait_traitsISC_EENS8_22waitable_timer_serviceISC_SE_EEEEESt8functionIFvRKSt10error_codeEESM_"
 "_ZN14ws_websocketpp9transport4asio10connectionINS_6config15asio_tls_client16transport_configEE14async_shutdownESt8functionIFvRKSt10error_codeEE"
 "_ZN14ws_websocketpp9transport4asio10connectionINS_6config15asio_tls_client16transport_configEE15handle_pre_initESt8functionIFvRKSt10error_codeEESA_"
 "_ZN14ws_websocketpp9transport4asio10connectionINS_6config15asio_tls_client16transport_configEE16handle_post_initESt10shared_ptrIN4asio20basic_waitable_timerINSt6chrono3_V212steady_clockENS8_11wait_traitsISC_EENS8_22waitable_timer_serviceISC_SE_EEEEESt8functionIFvRKSt10error_codeEESM_"
 "_ZN14ws_websocketpp9transport4asio10connectionINS_6config15asio_tls_client16transport_configEE17handle_async_readESt8functionIFvRKSt10error_codeyEESA_y"
 "_ZN14ws_websocketpp9transport4asio10connectionINS_6config15asio_tls_client16transport_configEE17handle_proxy_readESt8functionIFvRKSt10error_codeEESA_y"
 "_ZN14ws_websocketpp9transport4asio10connectionINS_6config15asio_tls_client16transport_configEE18handle_async_writeESt8functionIFvRKSt10error_codeEESA_y"
 "_ZN14ws_websocketpp9transport4asio10connectionINS_6config15asio_tls_client16transport_configEE18handle_proxy_writeESt8functionIFvRKSt10error_codeEESA_"
 "_ZN14ws_websocketpp9transport4asio10connectionINS_6config15asio_tls_client16transport_configEE19async_read_at_leastEyPcySt8functionIFvRKSt10error_codeyEE"
 "_ZN14ws_websocketpp9transport4asio10connectionINS_6config15asio_tls_client16transport_configEE20handle_proxy_timeoutESt8functionIFvRKSt10error_codeEESA_"
 "_ZN14ws_websocketpp9transport4asio10connectionINS_6config15asio_tls_client16transport_configEE21cancel_socket_checkedEv"
 "_ZN14ws_websocketpp9transport4asio10connectionINS_6config15asio_tls_client16transport_configEE21handle_async_shutdownESt10shared_ptrIN4asio20basic_waitable_timerINSt6chrono3_V212steady_clockENS8_11wait_traitsISC_EENS8_22waitable_timer_serviceISC_SE_EEEEESt8functionIFvRKSt10error_codeEESM_"
 "_ZN14ws_websocketpp9transport4asio10connectionINS_6config15asio_tls_client16transport_configEE24handle_post_init_timeoutESt10shared_ptrIN4asio20basic_waitable_timerINSt6chrono3_V212steady_clockENS8_11wait_traitsISC_EENS8_22waitable_timer_serviceISC_SE_EEEEESt8functionIFvRKSt10error_codeEESM_"
 "_ZN14ws_websocketpp9transport4asio10connectionINS_6config15asio_tls_client16transport_configEE29handle_async_shutdown_timeoutESt10shared_ptrIN4asio20basic_waitable_timerINSt6chrono3_V212steady_clockENS8_11wait_traitsISC_EENS8_22waitable_timer_serviceISC_SE_EEEEESt8functionIFvRKSt10error_codeEESM_"
 "_ZN14ws_websocketpp9transport4asio10connectionINS_6config15asio_tls_client16transport_configEE7log_errISt10error_codeEEvjPKcRKT_"
 "_ZN14ws_websocketpp9transport4asio10connectionINS_6config15asio_tls_client16transport_configEE8dispatchESt8functionIFvvEE"
 "_ZN14ws_websocketpp9transport4asio10connectionINS_6config15asio_tls_client16transport_configEE9post_initESt8functionIFvRKSt10error_codeEE"
 "_ZN14ws_websocketpp9transport4asio10connectionINS_6config15asio_tls_client16transport_configEE9set_timerElSt8functionIFvRKSt10error_codeEE"
 "_ZN14ws_websocketpp9transport4asio10connectionINS_6config15asio_tls_client16transport_configEED2Ev"
 "_ZN14ws_websocketpp9transport4asio10tls_socket10connection11handle_initESt8functionIFvRKSt10error_codeEES7_"
 "_ZN14ws_websocketpp9transport4asio10tls_socket10connection9post_initESt8functionIFvRKSt10error_codeEE"
 "_ZN14ws_websocketpp9transport4asio10tls_socket10connectionD2Ev"
 "_ZN14ws_websocketpp9transport4asio5error12get_categoryEv"
 "_ZN14ws_websocketpp9transport4asio5error8categoryD0Ev"
 "_ZN14ws_websocketpp9transport4asio5error8categoryD1Ev"
 "_ZN14ws_websocketpp9transport4asio6socket15socket_categoryD0Ev"
 "_ZN14ws_websocketpp9transport4asio6socket15socket_categoryD1Ev"
 "_ZN14ws_websocketpp9transport4asio6socket19get_socket_categoryEv"
 "_ZN14ws_websocketpp9transport4asio8endpointINS_6config11asio_client16transport_configEE13async_connectESt10shared_ptrINS1_10connectionIS5_EEES7_INS_3uriEESt8functionIFvRKSt10error_codeEE"
 "_ZN14ws_websocketpp9transport4asio8endpointINS_6config11asio_client16transport_configEE14handle_connectESt10shared_ptrINS1_10connectionIS5_EEES7_IN4asio20basic_waitable_timerINSt6chrono3_V212steady_clockENSB_11wait_traitsISF_EENSB_22waitable_timer_serviceISF_SH_EEEEESt8functionIFvRKSt10error_codeEESP_"
 "_ZN14ws_websocketpp9transport4asio8endpointINS_6config11asio_client16transport_configEE14handle_resolveESt10shared_ptrINS1_10connectionIS5_EEES7_IN4asio20basic_waitable_timerINSt6chrono3_V212steady_clockENSB_11wait_traitsISF_EENSB_22waitable_timer_serviceISF_SH_EEEEESt8functionIFvRKSt10error_codeEESP_NSB_2ip23basic_resolver_iteratorINSS_3tcpEEE"
 "_ZN14ws_websocketpp9transport4asio8endpointINS_6config11asio_client16transport_configEE22handle_connect_timeoutESt10shared_ptrINS1_10connectionIS5_EEES7_IN4asio20basic_waitable_timerINSt6chrono3_V212steady_clockENSB_11wait_traitsISF_EENSB_22waitable_timer_serviceISF_SH_EEEEESt8functionIFvRKSt10error_codeEESP_"
 "_ZN14ws_websocketpp9transport4asio8endpointINS_6config11asio_client16transport_configEE22handle_resolve_timeoutESt10shared_ptrIN4asio20basic_waitable_timerINSt6chrono3_V212steady_clockENS8_11wait_traitsISC_EENS8_22waitable_timer_serviceISC_SE_EEEEESt8functionIFvRKSt10error_codeEESM_"
 "_ZN14ws_websocketpp9transport4asio8endpointINS_6config11asio_client16transport_configEE4initESt10shared_ptrINS1_10connectionIS5_EEE"
 "_ZN14ws_websocketpp9transport4asio8endpointINS_6config11asio_client16transport_configEE7log_errISt10error_codeEEvjPKcRKT_"
 "_ZN14ws_websocketpp9transport4asio8endpointINS_6config11asio_client16transport_configEED2Ev"
 "_ZN14ws_websocketpp9transport4asio8endpointINS_6config15asio_tls_client16transport_configEE13async_connectESt10shared_ptrINS1_10connectionIS5_EEES7_INS_3uriEESt8functionIFvRKSt10error_codeEE"
 "_ZN14ws_websocketpp9transport4asio8endpointINS_6config15asio_tls_client16transport_configEE14handle_connectESt10shared_ptrINS1_10connectionIS5_EEES7_IN4asio20basic_waitable_timerINSt6chrono3_V212steady_clockENSB_11wait_traitsISF_EENSB_22waitable_timer_serviceISF_SH_EEEEESt8functionIFvRKSt10error_codeEESP_"
 "_ZN14ws_websocketpp9transport4asio8endpointINS_6config15asio_tls_client16transport_configEE14handle_resolveESt10shared_ptrINS1_10connectionIS5_EEES7_IN4asio20basic_waitable_timerINSt6chrono3_V212steady_clockENSB_11wait_traitsISF_EENSB_22waitable_timer_serviceISF_SH_EEEEESt8functionIFvRKSt10error_codeEESP_NSB_2ip23basic_resolver_iteratorINSS_3tcpEEE"
 "_ZN14ws_websocketpp9transport4asio8endpointINS_6config15asio_tls_client16transport_configEE22handle_connect_timeoutESt10shared_ptrINS1_10connectionIS5_EEES7_IN4asio20basic_waitable_timerINSt6chrono3_V212steady_clockENSB_11wait_traitsISF_EENSB_22waitable_timer_serviceISF_SH_EEEEESt8functionIFvRKSt10error_codeEESP_"
 "_ZN14ws_websocketpp9transport4asio8endpointINS_6config15asio_tls_client16transport_configEE22handle_resolve_timeoutESt10shared_ptrIN4asio20basic_waitable_timerINSt6chrono3_V212steady_clockENS8_11wait_traitsISC_EENS8_22waitable_timer_serviceISC_SE_EEEEESt8functionIFvRKSt10error_codeEESM_"
 "_ZN14ws_websocketpp9transport4asio8endpointINS_6config15asio_tls_client16transport_configEE4initESt10shared_ptrINS1_10connectionIS5_EEE"
 "_ZN14ws_websocketpp9transport4asio8endpointINS_6config15asio_tls_client16transport_configEE7log_errISt10error_codeEEvjPKcRKT_"
 "_ZN14ws_websocketpp9transport4asio8endpointINS_6config15asio_tls_client16transport_configEED2Ev"
 "_ZN14ws_websocketpp9transport5error12get_categoryEv"
 "_ZN14ws_websocketpp9transport5error8categoryD0Ev"
 "_ZN14ws_websocketpp9transport5error8categoryD1Ev"
 "_ZN4asio10io_service13executor_type4postINS_6detail15work_dispatcherINS3_7binder1INS3_10connect_opINS_2ip3tcpENS_21stream_socket_serviceIS8_EENS7_23basic_resolver_iteratorIS8_EENS3_25default_connect_conditionENS3_15wrapped_handlerINS0_6strandESt5_BindIFSt7_Mem_fnIMN14ws_websocketpp9transport4asio8endpointINSI_6config11asio_client16transport_configEEEFvSt10shared_ptrINSK_10connectionISO_EEESQ_INS_20basic_waitable_timerINSt6chrono3_V212steady_clockENS_11wait_traitsISX_EENS_22waitable_timer_serviceISX_SZ_EEEEESt8functionIFvRKSt10error_codeEES17_EEPSP_ST_S13_S19_St12_PlaceholderILi1EEEENS3_26is_continuation_if_runningEEEEES15_EEEESaIvEEEvOT_RKT0_"
 "_ZN4asio10io_service13executor_type4postINS_6detail15work_dispatcherINS3_7binder1INS3_10connect_opINS_2ip3tcpENS_21stream_socket_serviceIS8_EENS7_23basic_resolver_iteratorIS8_EENS3_25default_connect_conditionENS3_15wrapped_handlerINS0_6strandESt5_BindIFSt7_Mem_fnIMN14ws_websocketpp9transport4asio8endpointINSI_6config15asio_tls_client16transport_configEEEFvSt10shared_ptrINSK_10connectionISO_EEESQ_INS_20basic_waitable_timerINSt6chrono3_V212steady_clockENS_11wait_traitsISX_EENS_22waitable_timer_serviceISX_SZ_EEEEESt8functionIFvRKSt10error_codeEES17_EEPSP_ST_S13_S19_St12_PlaceholderILi1EEEENS3_26is_continuation_if_runningEEEEES15_EEEESaIvEEEvOT_RKT0_"
 "_ZN4asio10io_service13executor_type4postINS_6detail15work_dispatcherINS3_7binder1IRNS3_10connect_opINS_2ip3tcpENS_21stream_socket_serviceIS8_EENS7_23basic_resolver_iteratorIS8_EENS3_25default_connect_conditionENS3_15wrapped_handlerINS0_6strandESt5_BindIFSt7_Mem_fnIMN14ws_websocketpp9transport4asio8endpointINSI_6config11asio_client16transport_configEEEFvSt10shared_ptrINSK_10connectionISO_EEESQ_INS_20basic_waitable_timerINSt6chrono3_V212steady_clockENS_11wait_traitsISX_EENS_22waitable_timer_serviceISX_SZ_EEEEESt8functionIFvRKSt10error_codeEES17_EEPSP_ST_S13_S19_St12_PlaceholderILi1EEEENS3_26is_continuation_if_runningEEEEES15_EEEESaIvEEEvOT_RKT0_"
 "_ZN4asio10io_service13executor_type4postINS_6detail15work_dispatcherINS3_7binder1IRNS3_10connect_opINS_2ip3tcpENS_21stream_socket_serviceIS8_EENS7_23basic_resolver_iteratorIS8_EENS3_25default_connect_conditionENS3_15wrapped_handlerINS0_6strandESt5_BindIFSt7_Mem_fnIMN14ws_websocketpp9transport4asio8endpointINSI_6config15asio_tls_client16transport_configEEEFvSt10shared_ptrINSK_10connectionISO_EEESQ_INS_20basic_waitable_timerINSt6chrono3_V212steady_clockENS_11wait_traitsISX_EENS_22waitable_timer_serviceISX_SZ_EEEEESt8functionIFvRKSt10error_codeEES17_EEPSP_ST_S13_S19_St12_PlaceholderILi1EEEENS3_26is_continuation_if_runningEEEEES15_EEEESaIvEEEvOT_RKT0_"
 "_ZN4asio10io_service4postINS_6detail15wrapped_handlerINS0_6strandESt8functionIFvvEENS2_26is_continuation_if_runningEEEEENS_12async_resultINS_12handler_typeIT_S6_vE4typeEE4typeEOSC_"
 "_ZN4asio10io_serviceC1Ev"
 "_ZN4asio15basic_io_objectINS_21stream_socket_serviceINS_2ip3tcpEEELb1EED2Ev"
 "_ZN4asio15basic_io_objectINS_22waitable_timer_serviceINSt6chrono3_V212steady_clockENS_11wait_traitsIS4_EEEELb1EED2Ev"
 "_ZN4asio15basic_streambufISaIcEE7reserveEy"
 "_ZN4asio15system_categoryEv"
 "_ZN4asio17execution_context7service12fork_serviceENS0_10fork_eventE"
 "_ZN4asio17execution_contextD2Ev"
 "_ZN4asio20basic_waitable_timerINSt6chrono3_V212steady_clockENS_11wait_traitsIS3_EENS_22waitable_timer_serviceIS3_S5_EEE10expires_atERKNS1_10time_pointIS3_NS1_8durationIxSt5ratioILx1ELx1000000000EEEEEE"
 "_ZN4asio20basic_waitable_timerINSt6chrono3_V212steady_clockENS_11wait_traitsIS3_EENS_22waitable_timer_serviceIS3_S5_EEE6cancelEv"
 "_ZN4asio21asio_handler_allocateEyz"
 "_ZN4asio21invalid_service_ownerD0Ev"
 "_ZN4asio21invalid_service_ownerD1Ev"
 "_ZN4asio21stream_socket_serviceINS_2ip3tcpEE16shutdown_serviceEv"
 "_ZN4asio21stream_socket_serviceINS_2ip3tcpEED0Ev"
 "_ZN4asio21stream_socket_serviceINS_2ip3tcpEED1Ev"
 "_ZN4asio22service_already_existsD0Ev"
 "_ZN4asio22service_already_existsD1Ev"
 "_ZN4asio22waitable_timer_serviceINSt6chrono3_V212steady_clockENS_11wait_traitsIS3_EEE16shutdown_serviceEv"
 "_ZN4asio22waitable_timer_serviceINSt6chrono3_V212steady_clockENS_11wait_traitsIS3_EEED0Ev"
 "_ZN4asio22waitable_timer_serviceINSt6chrono3_V212steady_clockENS_11wait_traitsIS3_EEED1Ev"
 "_ZN4asio23asio_handler_deallocateEPvyz"
 "_ZN4asio23socket_acceptor_serviceINS_2ip3tcpEE16shutdown_serviceEv"
 "_ZN4asio23socket_acceptor_serviceINS_2ip3tcpEED0Ev"
 "_ZN4asio23socket_acceptor_serviceINS_2ip3tcpEED1Ev"
 "_ZN4asio2ip16bad_address_castD0Ev"
 "_ZN4asio2ip16bad_address_castD1Ev"
 "_ZN4asio2ip16resolver_serviceINS0_3tcpEE12fork_serviceENS_17execution_context10fork_eventE"
 "_ZN4asio2ip16resolver_serviceINS0_3tcpEE16shutdown_serviceEv"
 "_ZN4asio2ip16resolver_serviceINS0_3tcpEED0Ev"
 "_ZN4asio2ip16resolver_serviceINS0_3tcpEED1Ev"
 "_ZN4asio2ip20basic_resolver_entryINS0_3tcpEED1Ev"
 "_ZN4asio2ip20basic_resolver_queryINS0_3tcpEED1Ev"
 "_ZN4asio2ip23basic_resolver_iteratorINS0_3tcpEE6createEP8addrinfoRKSsS7_"
 "_ZN4asio2iplsIcSt11char_traitsIcENS0_3tcpEEERSt13basic_ostreamIT_T0_ES9_RKNS0_14basic_endpointIT1_EE"
 "_ZN4asio3ssl6detail12openssl_initILb1EE9instance_E"
 "_ZN4asio3ssl6detail17openssl_init_base7do_init15openssl_id_funcEv"
 "_ZN4asio3ssl6detail17openssl_init_base7do_init20openssl_locking_funcEiiPKci"
 "_ZN4asio3ssl6detail17openssl_init_base7do_initD1Ev"
 "_ZN4asio3ssl6detail17openssl_init_base8instanceEv"
 "_ZN4asio3ssl6detail5io_opINS_19basic_stream_socketINS_2ip3tcpENS_21stream_socket_serviceIS5_EEEENS1_11shutdown_opENS_6detail15wrapped_handlerINS_10io_service6strandESt8functionIFvRKSt10error_codeEENSA_26is_continuation_if_runningEEEEC1EOSM_"
 "_ZN4asio3ssl6detail5io_opINS_19basic_stream_socketINS_2ip3tcpENS_21stream_socket_serviceIS5_EEEENS1_11shutdown_opENS_6detail15wrapped_handlerINS_10io_service6strandESt8functionIFvRKSt10error_codeEENSA_26is_continuation_if_runningEEEEclESF_yi"
 "_ZN4asio3ssl6detail5io_opINS_19basic_stream_socketINS_2ip3tcpENS_21stream_socket_serviceIS5_EEEENS1_11shutdown_opESt8functionIFvRKSt10error_codeEEEclESB_yi"
 "_ZN4asio3ssl6detail5io_opINS_19basic_stream_socketINS_2ip3tcpENS_21stream_socket_serviceIS5_EEEENS1_12handshake_opENS_6detail15wrapped_handlerINS_10io_service6strandESt5_BindIFSt7_Mem_fnIMN14ws_websocketpp9transport4asio10tls_socket10connectionEFvSt8functionIFvRKSt10error_codeEESO_EESt10shared_ptrISK_ESQ_St12_PlaceholderILi1EEEENSA_26is_continuation_if_runningEEEEC1EOS12_"
 "_ZN4asio3ssl6detail5io_opINS_19basic_stream_socketINS_2ip3tcpENS_21stream_socket_serviceIS5_EEEENS1_12handshake_opENS_6detail15wrapped_handlerINS_10io_service6strandESt5_BindIFSt7_Mem_fnIMN14ws_websocketpp9transport4asio10tls_socket10connectionEFvSt8functionIFvRKSt10error_codeEESO_EESt10shared_ptrISK_ESQ_St12_PlaceholderILi1EEEENSA_26is_continuation_if_runningEEEEclESM_yi"
 "_ZN4asio3ssl6detail5io_opINS_19basic_stream_socketINS_2ip3tcpENS_21stream_socket_serviceIS5_EEEENS1_12handshake_opESt5_BindIFSt7_Mem_fnIMN14ws_websocketpp9transport4asio10tls_socket10connectionEFvSt8functionIFvRKSt10error_codeEESK_EESt10shared_ptrISG_ESM_St12_PlaceholderILi1EEEEEclESI_yi"
 "_ZN4asio3ssl6detail5io_opINS_19basic_stream_socketINS_2ip3tcpENS_21stream_socket_serviceIS5_EEEENS1_7read_opINS_17mutable_buffers_1EEENS_6detail7read_opINS0_6streamIS8_EESA_NSC_19transfer_at_least_tENSC_15wrapped_handlerINS_10io_service6strandEN14ws_websocketpp9transport4asio20custom_alloc_handlerISt5_BindIFSt7_Mem_fnIMNSM_10connectionINSK_6config15asio_tls_client16transport_configEEEFvSt8functionIFvRKSt10error_codeyEESY_yEESt10shared_ptrISU_ES10_St12_PlaceholderILi1EES16_ILi2EEEEEENSC_26is_continuation_if_runningEEEEEEC1EOS1F_"
 "_ZN4asio3ssl6detail5io_opINS_19basic_stream_socketINS_2ip3tcpENS_21stream_socket_serviceIS5_EEEENS1_7read_opINS_17mutable_buffers_1EEENS_6detail7read_opINS0_6streamIS8_EESA_NSC_19transfer_at_least_tENSC_15wrapped_handlerINS_10io_service6strandEN14ws_websocketpp9transport4asio20custom_alloc_handlerISt5_BindIFSt7_Mem_fnIMNSM_10connectionINSK_6config15asio_tls_client16transport_configEEEFvSt8functionIFvRKSt10error_codeyEESY_yEESt10shared_ptrISU_ES10_St12_PlaceholderILi1EES16_ILi2EEEEEENSC_26is_continuation_if_runningEEEEEEclESW_yi"
 "_ZN4asio3ssl6detail5io_opINS_19basic_stream_socketINS_2ip3tcpENS_21stream_socket_serviceIS5_EEEENS1_8write_opINS_6detail17consuming_buffersINS_12const_bufferESt6vectorISC_SaISC_EEEEEENSA_8write_opINS0_6streamIS8_EESF_NSA_14transfer_all_tENSA_15wrapped_handlerINS_10io_service6strandEN14ws_websocketpp9transport4asio20custom_alloc_handlerISt5_BindIFSt7_Mem_fnIMNSR_10connectionINSP_6config15asio_tls_client16transport_configEEEFvSt8functionIFvRKSt10error_codeEES13_yEESt10shared_ptrISZ_ES15_St12_PlaceholderILi1EES1B_ILi2EEEEEENSA_26is_continuation_if_runningEEEEEEC1EOS1K_"
 "_ZN4asio3ssl6detail5io_opINS_19basic_stream_socketINS_2ip3tcpENS_21stream_socket_serviceIS5_EEEENS1_8write_opINS_6detail17consuming_buffersINS_12const_bufferESt6vectorISC_SaISC_EEEEEENSA_8write_opINS0_6streamIS8_EESF_NSA_14transfer_all_tENSA_15wrapped_handlerINS_10io_service6strandEN14ws_websocketpp9transport4asio20custom_alloc_handlerISt5_BindIFSt7_Mem_fnIMNSR_10connectionINSP_6config15asio_tls_client16transport_configEEEFvSt8functionIFvRKSt10error_codeEES13_yEESt10shared_ptrISZ_ES15_St12_PlaceholderILi1EES1B_ILi2EEEEEENSA_26is_continuation_if_runningEEEEEEclES11_yi"
 "_ZN4asio3ssl6detail5io_opINS_19basic_stream_socketINS_2ip3tcpENS_21stream_socket_serviceIS5_EEEENS1_8write_opINS_6detail17consuming_buffersINS_12const_bufferESt6vectorISC_SaISC_EEEEEENSA_8write_opINS0_6streamIS8_EESF_NSA_14transfer_all_tENSA_15wrapped_handlerINS_10io_service6strandEN14ws_websocketpp9transport4asio20custom_alloc_handlerISt5_BindIFSt7_Mem_fnIMNSR_10connectionINSP_6config15asio_tls_client16transport_configEEEFvSt8functionIFvRKSt10error_codeEES13_yEESt10shared_ptrISZ_ES15_St12_PlaceholderILi1EES1B_ILi2EEEEEENSA_26is_continuation_if_runningEEEEEED1Ev"
 "_ZN4asio3ssl6detail6engine10do_connectEPvy"
 "_ZN4asio3ssl6detail6engine11do_shutdownEPvy"
 "_ZN4asio3ssl6detail6engine7do_readEPvy"
 "_ZN4asio3ssl6detail6engine7performEMS2_FiPvyES3_yRSt10error_codePy"
 "_ZN4asio3ssl6detail6engine8do_writeEPvy"
 "_ZN4asio3ssl6detail6engine9do_acceptEPvy"
 "_ZN4asio3ssl7contextC1ENS0_12context_base6methodE"
 "_ZN4asio5error16get_ssl_categoryEv"
 "_ZN4asio5error17get_misc_categoryEv"
 "_ZN4asio5error6detail12ssl_categoryD0Ev"
 "_ZN4asio5error6detail12ssl_categoryD1Ev"
 "_ZN4asio5error6detail13misc_categoryD0Ev"
 "_ZN4asio5error6detail13misc_categoryD1Ev"
 "_ZN4asio6detail10call_stackINS0_14strand_service11strand_implEhE4top_E"
 "_ZN4asio6detail10call_stackINS0_14strand_service11strand_implEhE7contextC1EPS3_"
 "_ZN4asio6detail10call_stackINS0_14thread_contextENS0_16thread_info_baseEE4top_E"
 "_ZN4asio6detail10call_stackINS0_23strand_executor_service11strand_implEhE4top_E"
 "_ZN4asio6detail10connect_opINS_2ip3tcpENS_21stream_socket_serviceIS3_EENS2_23basic_resolver_iteratorIS3_EENS0_25default_connect_conditionENS0_15wrapped_handlerINS_10io_service6strandESt5_BindIFSt7_Mem_fnIMN14ws_websocketpp9transport4asio8endpointINSE_6config11asio_client16transport_configEEEFvSt10shared_ptrINSG_10connectionISK_EEESM_INS_20basic_waitable_timerINSt6chrono3_V212steady_clockENS_11wait_traitsIST_EENS_22waitable_timer_serviceIST_SV_EEEEESt8functionIFvRKSt10error_codeEES13_EEPSL_SP_SZ_S15_St12_PlaceholderILi1EEEENS0_26is_continuation_if_runningEEEEC1EOS1G_"
 "_ZN4asio6detail10connect_opINS_2ip3tcpENS_21stream_socket_serviceIS3_EENS2_23basic_resolver_iteratorIS3_EENS0_25default_connect_conditionENS0_15wrapped_handlerINS_10io_service6strandESt5_BindIFSt7_Mem_fnIMN14ws_websocketpp9transport4asio8endpointINSE_6config11asio_client16transport_configEEEFvSt10shared_ptrINSG_10connectionISK_EEESM_INS_20basic_waitable_timerINSt6chrono3_V212steady_clockENS_11wait_traitsIST_EENS_22waitable_timer_serviceIST_SV_EEEEESt8functionIFvRKSt10error_codeEES13_EEPSL_SP_SZ_S15_St12_PlaceholderILi1EEEENS0_26is_continuation_if_runningEEEEclES11_i"
 "_ZN4asio6detail10connect_opINS_2ip3tcpENS_21stream_socket_serviceIS3_EENS2_23basic_resolver_iteratorIS3_EENS0_25default_connect_conditionENS0_15wrapped_handlerINS_10io_service6strandESt5_BindIFSt7_Mem_fnIMN14ws_websocketpp9transport4asio8endpointINSE_6config11asio_client16transport_configEEEFvSt10shared_ptrINSG_10connectionISK_EEESM_INS_20basic_waitable_timerINSt6chrono3_V212steady_clockENS_11wait_traitsIST_EENS_22waitable_timer_serviceIST_SV_EEEEESt8functionIFvRKSt10error_codeEES13_EEPSL_SP_SZ_S15_St12_PlaceholderILi1EEEENS0_26is_continuation_if_runningEEEED1Ev"
 "_ZN4asio6detail10connect_opINS_2ip3tcpENS_21stream_socket_serviceIS3_EENS2_23basic_resolver_iteratorIS3_EENS0_25default_connect_conditionENS0_15wrapped_handlerINS_10io_service6strandESt5_BindIFSt7_Mem_fnIMN14ws_websocketpp9transport4asio8endpointINSE_6config15asio_tls_client16transport_configEEEFvSt10shared_ptrINSG_10connectionISK_EEESM_INS_20basic_waitable_timerINSt6chrono3_V212steady_clockENS_11wait_traitsIST_EENS_22waitable_timer_serviceIST_SV_EEEEESt8functionIFvRKSt10error_codeEES13_EEPSL_SP_SZ_S15_St12_PlaceholderILi1EEEENS0_26is_continuation_if_runningEEEEC1EOS1G_"
 "_ZN4asio6detail10connect_opINS_2ip3tcpENS_21stream_socket_serviceIS3_EENS2_23basic_resolver_iteratorIS3_EENS0_25default_connect_conditionENS0_15wrapped_handlerINS_10io_service6strandESt5_BindIFSt7_Mem_fnIMN14ws_websocketpp9transport4asio8endpointINSE_6config15asio_tls_client16transport_configEEEFvSt10shared_ptrINSG_10connectionISK_EEESM_INS_20basic_waitable_timerINSt6chrono3_V212steady_clockENS_11wait_traitsIST_EENS_22waitable_timer_serviceIST_SV_EEEEESt8functionIFvRKSt10error_codeEES13_EEPSL_SP_SZ_S15_St12_PlaceholderILi1EEEENS0_26is_continuation_if_runningEEEEclES11_i"
 "_ZN4asio6detail10connect_opINS_2ip3tcpENS_21stream_socket_serviceIS3_EENS2_23basic_resolver_iteratorIS3_EENS0_25default_connect_conditionENS0_15wrapped_handlerINS_10io_service6strandESt5_BindIFSt7_Mem_fnIMN14ws_websocketpp9transport4asio8endpointINSE_6config15asio_tls_client16transport_configEEEFvSt10shared_ptrINSG_10connectionISK_EEESM_INS_20basic_waitable_timerINSt6chrono3_V212steady_clockENS_11wait_traitsIST_EENS_22waitable_timer_serviceIST_SV_EEEEESt8functionIFvRKSt10error_codeEES13_EEPSL_SP_SZ_S15_St12_PlaceholderILi1EEEENS0_26is_continuation_if_runningEEEED1Ev"
 "_ZN4asio6detail10resolve_opINS_2ip3tcpENS0_15wrapped_handlerINS_10io_service6strandESt5_BindIFSt7_Mem_fnIMN14ws_websocketpp9transport4asio8endpointINS9_6config11asio_client16transport_configEEEFvSt10shared_ptrINSB_10connectionISF_EEESH_INS_20basic_waitable_timerINSt6chrono3_V212steady_clockENS_11wait_traitsISO_EENS_22waitable_timer_serviceISO_SQ_EEEEESt8functionIFvRKSt10error_codeEESY_NS2_23basic_resolver_iteratorIS3_EEEEPSG_SK_SU_S10_St12_PlaceholderILi1EES17_ILi2EEEENS0_26is_continuation_if_runningEEEE11do_completeEPvPNS0_18win_iocp_operationESY_y"
 "_ZN4asio6detail10resolve_opINS_2ip3tcpENS0_15wrapped_handlerINS_10io_service6strandESt5_BindIFSt7_Mem_fnIMN14ws_websocketpp9transport4asio8endpointINS9_6config11asio_client16transport_configEEEFvSt10shared_ptrINSB_10connectionISF_EEESH_INS_20basic_waitable_timerINSt6chrono3_V212steady_clockENS_11wait_traitsISO_EENS_22waitable_timer_serviceISO_SQ_EEEEESt8functionIFvRKSt10error_codeEESY_NS2_23basic_resolver_iteratorIS3_EEEEPSG_SK_SU_S10_St12_PlaceholderILi1EES17_ILi2EEEENS0_26is_continuation_if_runningEEEE3ptr5resetEv"
 "_ZN4asio6detail10resolve_opINS_2ip3tcpENS0_15wrapped_handlerINS_10io_service6strandESt5_BindIFSt7_Mem_fnIMN14ws_websocketpp9transport4asio8endpointINS9_6config15asio_tls_client16transport_configEEEFvSt10shared_ptrINSB_10connectionISF_EEESH_INS_20basic_waitable_timerINSt6chrono3_V212steady_clockENS_11wait_traitsISO_EENS_22waitable_timer_serviceISO_SQ_EEEEESt8functionIFvRKSt10error_codeEESY_NS2_23basic_resolver_iteratorIS3_EEEEPSG_SK_SU_S10_St12_PlaceholderILi1EES17_ILi2EEEENS0_26is_continuation_if_runningEEEE11do_completeEPvPNS0_18win_iocp_operationESY_y"
 "_ZN4asio6detail10resolve_opINS_2ip3tcpENS0_15wrapped_handlerINS_10io_service6strandESt5_BindIFSt7_Mem_fnIMN14ws_websocketpp9transport4asio8endpointINS9_6config15asio_tls_client16transport_configEEEFvSt10shared_ptrINSB_10connectionISF_EEESH_INS_20basic_waitable_timerINSt6chrono3_V212steady_clockENS_11wait_traitsISO_EENS_22waitable_timer_serviceISO_SQ_EEEEESt8functionIFvRKSt10error_codeEESY_NS2_23basic_resolver_iteratorIS3_EEEEPSG_SK_SU_S10_St12_PlaceholderILi1EES17_ILi2EEEENS0_26is_continuation_if_runningEEEE3ptr5resetEv"
 "_ZN4asio6detail10scoped_ptrINS0_10win_threadEED1Ev"
 "_ZN4asio6detail10socket_ops10setsockoptEyRhiiPKvyRSt10error_code"
 "_ZN4asio6detail10socket_ops18complete_iocp_recvEhRKSt8weak_ptrIvEbRSt10error_codey"
 "_ZN4asio6detail10socket_ops18complete_iocp_sendERKSt8weak_ptrIvERSt10error_code"
 "_ZN4asio6detail10socket_ops20non_blocking_connectEyRSt10error_code"
 "_ZN4asio6detail10socket_ops21complete_iocp_connectEyRSt10error_code"
 "_ZN4asio6detail10socket_ops5closeEyRhbRSt10error_code"
 "_ZN4asio6detail10win_thread12start_threadEPNS1_9func_baseEj"
 "_ZN4asio6detail10win_thread4funcINS0_14select_reactor15thread_functionEE3runEv"
 "_ZN4asio6detail10win_thread4funcINS0_14select_reactor15thread_functionEED0Ev"
 "_ZN4asio6detail10win_thread4funcINS0_14select_reactor15thread_functionEED1Ev"
 "_ZN4asio6detail10win_thread4funcINS0_19win_iocp_io_service21timer_thread_functionEE3runEv"
 "_ZN4asio6detail10win_thread4funcINS0_19win_iocp_io_service21timer_thread_functionEED0Ev"
 "_ZN4asio6detail10win_thread4funcINS0_19win_iocp_io_service21timer_thread_functionEED1Ev"
 "_ZN4asio6detail10win_thread4funcINS0_21resolver_service_base22work_io_service_runnerEE3runEv"
 "_ZN4asio6detail10win_thread4funcINS0_21resolver_service_base22work_io_service_runnerEED0Ev"
 "_ZN4asio6detail10win_thread4funcINS0_21resolver_service_base22work_io_service_runnerEED1Ev"
 "_ZN4asio6detail10win_thread4joinEv"
 "_ZN4asio6detail11executor_opINS0_15work_dispatcherINS0_7binder1INS0_10connect_opINS_2ip3tcpENS_21stream_socket_serviceIS6_EENS5_23basic_resolver_iteratorIS6_EENS0_25default_connect_conditionENS0_15wrapped_handlerINS_10io_service6strandESt5_BindIFSt7_Mem_fnIMN14ws_websocketpp9transport4asio8endpointINSH_6config11asio_client16transport_configEEEFvSt10shared_ptrINSJ_10connectionISN_EEESP_INS_20basic_waitable_timerINSt6chrono3_V212steady_clockENS_11wait_traitsISW_EENS_22waitable_timer_serviceISW_SY_EEEEESt8functionIFvRKSt10error_codeEES16_EEPSO_SS_S12_S18_St12_PlaceholderILi1EEEENS0_26is_continuation_if_runningEEEEES14_EEEENS0_19recycling_allocatorIvEENS0_18win_iocp_operationEE11do_completeEPvPS1O_S16_y"
 "_ZN4asio6detail11executor_opINS0_15work_dispatcherINS0_7binder1INS0_10connect_opINS_2ip3tcpENS_21stream_socket_serviceIS6_EENS5_23basic_resolver_iteratorIS6_EENS0_25default_connect_conditionENS0_15wrapped_handlerINS_10io_service6strandESt5_BindIFSt7_Mem_fnIMN14ws_websocketpp9transport4asio8endpointINSH_6config15asio_tls_client16transport_configEEEFvSt10shared_ptrINSJ_10connectionISN_EEESP_INS_20basic_waitable_timerINSt6chrono3_V212steady_clockENS_11wait_traitsISW_EENS_22waitable_timer_serviceISW_SY_EEEEESt8functionIFvRKSt10error_codeEES16_EEPSO_SS_S12_S18_St12_PlaceholderILi1EEEENS0_26is_continuation_if_runningEEEEES14_EEEENS0_19recycling_allocatorIvEENS0_18win_iocp_operationEE11do_completeEPvPS1O_S16_y"
 "_ZN4asio6detail11executor_opINS0_15work_dispatcherINS0_7binder1IRNS0_10connect_opINS_2ip3tcpENS_21stream_socket_serviceIS6_EENS5_23basic_resolver_iteratorIS6_EENS0_25default_connect_conditionENS0_15wrapped_handlerINS_10io_service6strandESt5_BindIFSt7_Mem_fnIMN14ws_websocketpp9transport4asio8endpointINSH_6config11asio_client16transport_configEEEFvSt10shared_ptrINSJ_10connectionISN_EEESP_INS_20basic_waitable_timerINSt6chrono3_V212steady_clockENS_11wait_traitsISW_EENS_22waitable_timer_serviceISW_SY_EEEEESt8functionIFvRKSt10error_codeEES16_EEPSO_SS_S12_S18_St12_PlaceholderILi1EEEENS0_26is_continuation_if_runningEEEEES14_EEEENS0_19recycling_allocatorIvEENS0_18win_iocp_operationEE11do_completeEPvPS1P_S16_y"
 "_ZN4asio6detail11executor_opINS0_15work_dispatcherINS0_7binder1IRNS0_10connect_opINS_2ip3tcpENS_21stream_socket_serviceIS6_EENS5_23basic_resolver_iteratorIS6_EENS0_25default_connect_conditionENS0_15wrapped_handlerINS_10io_service6strandESt5_BindIFSt7_Mem_fnIMN14ws_websocketpp9transport4asio8endpointINSH_6config15asio_tls_client16transport_configEEEFvSt10shared_ptrINSJ_10connectionISN_EEESP_INS_20basic_waitable_timerINSt6chrono3_V212steady_clockENS_11wait_traitsISW_EENS_22waitable_timer_serviceISW_SY_EEEEESt8functionIFvRKSt10error_codeEES16_EEPSO_SS_S12_S18_St12_PlaceholderILi1EEEENS0_26is_continuation_if_runningEEEEES14_EEEENS0_19recycling_allocatorIvEENS0_18win_iocp_operationEE11do_completeEPvPS1P_S16_y"
 "_ZN4asio6detail11timer_queueINS0_18chrono_time_traitsINSt6chrono3_V212steady_clockENS_11wait_traitsIS5_EEEEE12remove_timerERNS9_14per_timer_dataE"
 "_ZN4asio6detail11timer_queueINS0_18chrono_time_traitsINSt6chrono3_V212steady_clockENS_11wait_traitsIS5_EEEEE14get_all_timersERNS0_8op_queueINS0_18win_iocp_operationEEE"
 "_ZN4asio6detail11timer_queueINS0_18chrono_time_traitsINSt6chrono3_V212steady_clockENS_11wait_traitsIS5_EEEEE16get_ready_timersERNS0_8op_queueINS0_18win_iocp_operationEEE"
 "_ZN4asio6detail11timer_queueINS0_18chrono_time_traitsINSt6chrono3_V212steady_clockENS_11wait_traitsIS5_EEEEED0Ev"
 "_ZN4asio6detail11timer_queueINS0_18chrono_time_traitsINSt6chrono3_V212steady_clockENS_11wait_traitsIS5_EEEEED1Ev"
 "_ZN4asio6detail12apc_functionEy"
 "_ZN4asio6detail12wait_handlerINS_3ssl6detail5io_opINS_19basic_stream_socketINS_2ip3tcpENS_21stream_socket_serviceIS7_EEEENS3_11shutdown_opENS0_15wrapped_handlerINS_10io_service6strandESt8functionIFvRKSt10error_codeEENS0_26is_continuation_if_runningEEEEEE11do_completeEPvPNS0_18win_iocp_operationESI_y"
 "_ZN4asio6detail12wait_handlerINS_3ssl6detail5io_opINS_19basic_stream_socketINS_2ip3tcpENS_21stream_socket_serviceIS7_EEEENS3_11shutdown_opENS0_15wrapped_handlerINS_10io_service6strandESt8functionIFvRKSt10error_codeEENS0_26is_continuation_if_runningEEEEEE3ptr5resetEv"
 "_ZN4asio6detail12wait_handlerINS_3ssl6detail5io_opINS_19basic_stream_socketINS_2ip3tcpENS_21stream_socket_serviceIS7_EEEENS3_11shutdown_opESt8functionIFvRKSt10error_codeEEEEE11do_completeEPvPNS0_18win_iocp_operationESF_y"
 "_ZN4asio6detail12wait_handlerINS_3ssl6detail5io_opINS_19basic_stream_socketINS_2ip3tcpENS_21stream_socket_serviceIS7_EEEENS3_11shutdown_opESt8functionIFvRKSt10error_codeEEEEE3ptr5resetEv"
 "_ZN4asio6detail12wait_handlerINS_3ssl6detail5io_opINS_19basic_stream_socketINS_2ip3tcpENS_21stream_socket_serviceIS7_EEEENS3_12handshake_opENS0_15wrapped_handlerINS_10io_service6strandESt5_BindIFSt7_Mem_fnIMN14ws_websocketpp9transport4asio10tls_socket10connectionEFvSt8functionIFvRKSt10error_codeEESP_EESt10shared_ptrISL_ESR_St12_PlaceholderILi1EEEENS0_26is_continuation_if_runningEEEEEE11do_completeEPvPNS0_18win_iocp_operationESP_y"
 "_ZN4asio6detail12wait_handlerINS_3ssl6detail5io_opINS_19basic_stream_socketINS_2ip3tcpENS_21stream_socket_serviceIS7_EEEENS3_12handshake_opENS0_15wrapped_handlerINS_10io_service6strandESt5_BindIFSt7_Mem_fnIMN14ws_websocketpp9transport4asio10tls_socket10connectionEFvSt8functionIFvRKSt10error_codeEESP_EESt10shared_ptrISL_ESR_St12_PlaceholderILi1EEEENS0_26is_continuation_if_runningEEEEEE3ptr5resetEv"
 "_ZN4asio6detail12wait_handlerINS_3ssl6detail5io_opINS_19basic_stream_socketINS_2ip3tcpENS_21stream_socket_serviceIS7_EEEENS3_12handshake_opESt5_BindIFSt7_Mem_fnIMN14ws_websocketpp9transport4asio10tls_socket10connectionEFvSt8functionIFvRKSt10error_codeEESM_EESt10shared_ptrISI_ESO_St12_PlaceholderILi1EEEEEEE11do_completeEPvPNS0_18win_iocp_operationESM_y"
 "_ZN4asio6detail12wait_handlerINS_3ssl6detail5io_opINS_19basic_stream_socketINS_2ip3tcpENS_21stream_socket_serviceIS7_EEEENS3_12handshake_opESt5_BindIFSt7_Mem_fnIMN14ws_websocketpp9transport4asio10tls_socket10connectionEFvSt8functionIFvRKSt10error_codeEESM_EESt10shared_ptrISI_ESO_St12_PlaceholderILi1EEEEEEE3ptr5resetEv"
 "_ZN4asio6detail12wait_handlerINS_3ssl6detail5io_opINS_19basic_stream_socketINS_2ip3tcpENS_21stream_socket_serviceIS7_EEEENS3_7read_opINS_17mutable_buffers_1EEENS0_7read_opINS2_6streamISA_EESC_NS0_19transfer_at_least_tENS0_15wrapped_handlerINS_10io_service6strandEN14ws_websocketpp9transport4asio20custom_alloc_handlerISt5_BindIFSt7_Mem_fnIMNSN_10connectionINSL_6config15asio_tls_client16transport_configEEEFvSt8functionIFvRKSt10error_codeyEESZ_yEESt10shared_ptrISV_ES11_St12_PlaceholderILi1EES17_ILi2EEEEEENS0_26is_continuation_if_runningEEEEEEEE11do_completeEPvPNS0_18win_iocp_operationESZ_y"
 "_ZN4asio6detail12wait_handlerINS_3ssl6detail5io_opINS_19basic_stream_socketINS_2ip3tcpENS_21stream_socket_serviceIS7_EEEENS3_7read_opINS_17mutable_buffers_1EEENS0_7read_opINS2_6streamISA_EESC_NS0_19transfer_at_least_tENS0_15wrapped_handlerINS_10io_service6strandEN14ws_websocketpp9transport4asio20custom_alloc_handlerISt5_BindIFSt7_Mem_fnIMNSN_10connectionINSL_6config15asio_tls_client16transport_configEEEFvSt8functionIFvRKSt10error_codeyEESZ_yEESt10shared_ptrISV_ES11_St12_PlaceholderILi1EES17_ILi2EEEEEENS0_26is_continuation_if_runningEEEEEEEE3ptr5resetEv"
 "_ZN4asio6detail12wait_handlerINS_3ssl6detail5io_opINS_19basic_stream_socketINS_2ip3tcpENS_21stream_socket_serviceIS7_EEEENS3_8write_opINS0_17consuming_buffersINS_12const_bufferESt6vectorISD_SaISD_EEEEEENS0_8write_opINS2_6streamISA_EESG_NS0_14transfer_all_tENS0_15wrapped_handlerINS_10io_service6strandEN14ws_websocketpp9transport4asio20custom_alloc_handlerISt5_BindIFSt7_Mem_fnIMNSS_10connectionINSQ_6config15asio_tls_client16transport_configEEEFvSt8functionIFvRKSt10error_codeEES14_yEESt10shared_ptrIS10_ES16_St12_PlaceholderILi1EES1C_ILi2EEEEEENS0_26is_continuation_if_runningEEEEEEEE11do_completeEPvPNS0_18win_iocp_operationES14_y"
 "_ZN4asio6detail12wait_handlerINS_3ssl6detail5io_opINS_19basic_stream_socketINS_2ip3tcpENS_21stream_socket_serviceIS7_EEEENS3_8write_opINS0_17consuming_buffersINS_12const_bufferESt6vectorISD_SaISD_EEEEEENS0_8write_opINS2_6streamISA_EESG_NS0_14transfer_all_tENS0_15wrapped_handlerINS_10io_service6strandEN14ws_websocketpp9transport4asio20custom_alloc_handlerISt5_BindIFSt7_Mem_fnIMNSS_10connectionINSQ_6config15asio_tls_client16transport_configEEEFvSt8functionIFvRKSt10error_codeEES14_yEESt10shared_ptrIS10_ES16_St12_PlaceholderILi1EES1C_ILi2EEEEEENS0_26is_continuation_if_runningEEEEEEEE3ptr5resetEv"
 "_ZN4asio6detail12wait_handlerINS0_15wrapped_handlerINS_10io_service6strandESt5_BindIFSt7_Mem_fnIMN14ws_websocketpp9transport4asio10connectionINS7_6config11asio_client16transport_configEEEFvSt10shared_ptrINS_20basic_waitable_timerINSt6chrono3_V212steady_clockENS_11wait_traitsISJ_EENS_22waitable_timer_serviceISJ_SL_EEEEESt8functionIFvRKSt10error_codeEEST_EESF_ISE_ESP_SV_St12_PlaceholderILi1EEEENS0_26is_continuation_if_runningEEEE11do_completeEPvPNS0_18win_iocp_operationEST_y"
 "_ZN4asio6detail12wait_handlerINS0_15wrapped_handlerINS_10io_service6strandESt5_BindIFSt7_Mem_fnIMN14ws_websocketpp9transport4asio10connectionINS7_6config11asio_client16transport_configEEEFvSt10shared_ptrINS_20basic_waitable_timerINSt6chrono3_V212steady_clockENS_11wait_traitsISJ_EENS_22waitable_timer_serviceISJ_SL_EEEEESt8functionIFvRKSt10error_codeEEST_EESF_ISE_ESP_SV_St12_PlaceholderILi1EEEENS0_26is_continuation_if_runningEEEE3ptr5resetEv"
 "_ZN4asio6detail12wait_handlerINS0_15wrapped_handlerINS_10io_service6strandESt5_BindIFSt7_Mem_fnIMN14ws_websocketpp9transport4asio10connectionINS7_6config15asio_tls_client16transport_configEEEFvSt10shared_ptrINS_20basic_waitable_timerINSt6chrono3_V212steady_clockENS_11wait_traitsISJ_EENS_22waitable_timer_serviceISJ_SL_EEEEESt8functionIFvRKSt10error_codeEEST_EESF_ISE_ESP_SV_St12_PlaceholderILi1EEEENS0_26is_continuation_if_runningEEEE11do_completeEPvPNS0_18win_iocp_operationEST_y"
 "_ZN4asio6detail12wait_handlerINS0_15wrapped_handlerINS_10io_service6strandESt5_BindIFSt7_Mem_fnIMN14ws_websocketpp9transport4asio10connectionINS7_6config15asio_tls_client16transport_configEEEFvSt10shared_ptrINS_20basic_waitable_timerINSt6chrono3_V212steady_clockENS_11wait_traitsISJ_EENS_22waitable_timer_serviceISJ_SL_EEEEESt8functionIFvRKSt10error_codeEEST_EESF_ISE_ESP_SV_St12_PlaceholderILi1EEEENS0_26is_continuation_if_runningEEEE3ptr5resetEv"
 "_ZN4asio6detail12winsock_initILi2ELi0EE5data_E"
 "_ZN4asio6detail13socket_holderD1Ev"
 "_ZN4asio6detail14do_throw_errorERKSt10error_code"
 "_ZN4asio6detail14do_throw_errorERKSt10error_codePKc"
 "_ZN4asio6detail14partial_searchINS_16buffers_iteratorINS_15const_buffers_1EcEEN9__gnu_cxx17__normal_iteratorIPcSsEEEESt4pairIT_bESA_SA_T0_SC_"
 "_ZN4asio6detail14select_reactor12fork_serviceENS_17execution_context10fork_eventE"
 "_ZN4asio6detail14select_reactor16shutdown_serviceEv"
 "_ZN4asio6detail14select_reactor19cancel_ops_unlockedEyRKSt10error_code"
 "_ZN4asio6detail14select_reactor3runEbRNS0_8op_queueINS0_18win_iocp_operationEEE"
 "_ZN4asio6detail14select_reactorD0Ev"
 "_ZN4asio6detail14select_reactorD1Ev"
 "_ZN4asio6detail14strand_service11do_completeEPvPNS0_18win_iocp_operationERKSt10error_codey"
 "_ZN4asio6detail14strand_service11do_dispatchERPNS1_11strand_implEPNS0_18win_iocp_operationE"
 "_ZN4asio6detail14strand_service16on_dispatch_exitD1Ev"
 "_ZN4asio6detail14strand_service16shutdown_serviceEv"
 "_ZN4asio6detail14strand_service19on_do_complete_exitD1Ev"
 "_ZN4asio6detail14strand_service8dispatchINS0_17rewrapped_handlerINS0_15wrapped_handlerINS_10io_service6strandESt8functionIFvvEENS0_26is_continuation_if_runningEEES9_EEEEvRPNS1_11strand_implERT_"
 "_ZN4asio6detail14strand_service8dispatchINS0_17rewrapped_handlerINS0_7binder1INS_3ssl6detail5io_opINS_19basic_stream_socketINS_2ip3tcpENS_21stream_socket_serviceISA_EEEENS6_11shutdown_opENS0_15wrapped_handlerINS_10io_service6strandESt8functionIFvRKSt10error_codeEENS0_26is_continuation_if_runningEEEEESJ_EESN_EEEEvRPNS1_11strand_implERT_"
 "_ZN4asio6detail14strand_service8dispatchINS0_17rewrapped_handlerINS0_7binder1INS_3ssl6detail5io_opINS_19basic_stream_socketINS_2ip3tcpENS_21stream_socket_serviceISA_EEEENS6_12handshake_opENS0_15wrapped_handlerINS_10io_service6strandESt5_BindIFSt7_Mem_fnIMN14ws_websocketpp9transport4asio10tls_socket10connectionEFvSt8functionIFvRKSt10error_codeEESS_EESt10shared_ptrISO_ESU_St12_PlaceholderILi1EEEENS0_26is_continuation_if_runningEEEEESQ_EES13_EEEEvRPNS1_11strand_implERT_"
 "_ZN4asio6detail14strand_service8dispatchINS0_17rewrapped_handlerINS0_7binder1INS_3ssl6detail5io_opINS_19basic_stream_socketINS_2ip3tcpENS_21stream_socket_serviceISA_EEEENS6_7read_opINS_17mutable_buffers_1EEENS0_7read_opINS5_6streamISD_EESF_NS0_19transfer_at_least_tENS0_15wrapped_handlerINS_10io_service6strandEN14ws_websocketpp9transport4asio20custom_alloc_handlerISt5_BindIFSt7_Mem_fnIMNSQ_10connectionINSO_6config15asio_tls_client16transport_configEEEFvSt8functionIFvRKSt10error_codeyEES12_yEESt10shared_ptrISY_ES14_St12_PlaceholderILi1EES1A_ILi2EEEEEENS0_26is_continuation_if_runningEEEEEEES10_EES1F_EEEEvRPNS1_11strand_implERT_"
 "_ZN4asio6detail14strand_service8dispatchINS0_17rewrapped_handlerINS0_7binder1INS_3ssl6detail5io_opINS_19basic_stream_socketINS_2ip3tcpENS_21stream_socket_serviceISA_EEEENS6_8write_opINS0_17consuming_buffersINS_12const_bufferESt6vectorISG_SaISG_EEEEEENS0_8write_opINS5_6streamISD_EESJ_NS0_14transfer_all_tENS0_15wrapped_handlerINS_10io_service6strandEN14ws_websocketpp9transport4asio20custom_alloc_handlerISt5_BindIFSt7_Mem_fnIMNSV_10connectionINST_6config15asio_tls_client16transport_configEEEFvSt8functionIFvRKSt10error_codeEES17_yEESt10shared_ptrIS13_ES19_St12_PlaceholderILi1EES1F_ILi2EEEEEENS0_26is_continuation_if_runningEEEEEEES15_EES1K_EEEEvRPNS1_11strand_implERT_"
 "_ZN4asio6detail14strand_service8dispatchINS0_17rewrapped_handlerINS0_7binder1INS0_10connect_opINS_2ip3tcpENS_21stream_socket_serviceIS7_EENS6_23basic_resolver_iteratorIS7_EENS0_25default_connect_conditionENS0_15wrapped_handlerINS_10io_service6strandESt5_BindIFSt7_Mem_fnIMN14ws_websocketpp9transport4asio8endpointINSI_6config11asio_client16transport_configEEEFvSt10shared_ptrINSK_10connectionISO_EEESQ_INS_20basic_waitable_timerINSt6chrono3_V212steady_clockENS_11wait_traitsISX_EENS_22waitable_timer_serviceISX_SZ_EEEEESt8functionIFvRKSt10error_codeEES17_EEPSP_ST_S13_S19_St12_PlaceholderILi1EEEENS0_26is_continuation_if_runningEEEEES15_EES1H_EEEEvRPNS1_11strand_implERT_"
 "_ZN4asio6detail14strand_service8dispatchINS0_17rewrapped_handlerINS0_7binder1INS0_10connect_opINS_2ip3tcpENS_21stream_socket_serviceIS7_EENS6_23basic_resolver_iteratorIS7_EENS0_25default_connect_conditionENS0_15wrapped_handlerINS_10io_service6strandESt5_BindIFSt7_Mem_fnIMN14ws_websocketpp9transport4asio8endpointINSI_6config15asio_tls_client16transport_configEEEFvSt10shared_ptrINSK_10connectionISO_EEESQ_INS_20basic_waitable_timerINSt6chrono3_V212steady_clockENS_11wait_traitsISX_EENS_22waitable_timer_serviceISX_SZ_EEEEESt8functionIFvRKSt10error_codeEES17_EEPSP_ST_S13_S19_St12_PlaceholderILi1EEEENS0_26is_continuation_if_runningEEEEES15_EES1H_EEEEvRPNS1_11strand_implERT_"
 "_ZN4asio6detail14strand_service8dispatchINS0_17rewrapped_handlerINS0_7binder1INS0_15wrapped_handlerINS_10io_service6strandESt5_BindIFSt7_Mem_fnIMN14ws_websocketpp9transport4asio10connectionINSA_6config11asio_client16transport_configEEEFvSt10shared_ptrINS_20basic_waitable_timerINSt6chrono3_V212steady_clockENS_11wait_traitsISM_EENS_22waitable_timer_serviceISM_SO_EEEEESt8functionIFvRKSt10error_codeEESW_EESI_ISH_ESS_SY_St12_PlaceholderILi1EEEENS0_26is_continuation_if_runningEEESU_EES16_EEEEvRPNS1_11strand_implERT_"
 "_ZN4asio6detail14strand_service8dispatchINS0_17rewrapped_handlerINS0_7binder1INS0_15wrapped_handlerINS_10io_service6strandESt5_BindIFSt7_Mem_fnIMN14ws_websocketpp9transport4asio10connectionINSA_6config15asio_tls_client16transport_configEEEFvSt10shared_ptrINS_20basic_waitable_timerINSt6chrono3_V212steady_clockENS_11wait_traitsISM_EENS_22waitable_timer_serviceISM_SO_EEEEESt8functionIFvRKSt10error_codeEESW_EESI_ISH_ESS_SY_St12_PlaceholderILi1EEEENS0_26is_continuation_if_runningEEESU_EES16_EEEEvRPNS1_11strand_implERT_"
 "_ZN4asio6detail14strand_service8dispatchINS0_17rewrapped_handlerINS0_7binder1IRNS0_10connect_opINS_2ip3tcpENS_21stream_socket_serviceIS7_EENS6_23basic_resolver_iteratorIS7_EENS0_25default_connect_conditionENS0_15wrapped_handlerINS_10io_service6strandESt5_BindIFSt7_Mem_fnIMN14ws_websocketpp9transport4asio8endpointINSI_6config11asio_client16transport_configEEEFvSt10shared_ptrINSK_10connectionISO_EEESQ_INS_20basic_waitable_timerINSt6chrono3_V212steady_clockENS_11wait_traitsISX_EENS_22waitable_timer_serviceISX_SZ_EEEEESt8functionIFvRKSt10error_codeEES17_EEPSP_ST_S13_S19_St12_PlaceholderILi1EEEENS0_26is_continuation_if_runningEEEEES15_EES1H_EEEEvRPNS1_11strand_implERT_"
 "_ZN4asio6detail14strand_service8dispatchINS0_17rewrapped_handlerINS0_7binder1IRNS0_10connect_opINS_2ip3tcpENS_21stream_socket_serviceIS7_EENS6_23basic_resolver_iteratorIS7_EENS0_25default_connect_conditionENS0_15wrapped_handlerINS_10io_service6strandESt5_BindIFSt7_Mem_fnIMN14ws_websocketpp9transport4asio8endpointINSI_6config15asio_tls_client16transport_configEEEFvSt10shared_ptrINSK_10connectionISO_EEESQ_INS_20basic_waitable_timerINSt6chrono3_V212steady_clockENS_11wait_traitsISX_EENS_22waitable_timer_serviceISX_SZ_EEEEESt8functionIFvRKSt10error_codeEES17_EEPSP_ST_S13_S19_St12_PlaceholderILi1EEEENS0_26is_continuation_if_runningEEEEES15_EES1H_EEEEvRPNS1_11strand_implERT_"
 "_ZN4asio6detail14strand_service8dispatchINS0_17rewrapped_handlerINS0_7binder2INS_3ssl6detail5io_opINS_19basic_stream_socketINS_2ip3tcpENS_21stream_socket_serviceISA_EEEENS6_11shutdown_opENS0_15wrapped_handlerINS_10io_service6strandESt8functionIFvRKSt10error_codeEENS0_26is_continuation_if_runningEEEEESJ_yEESN_EEEEvRPNS1_11strand_implERT_"
 "_ZN4asio6detail14strand_service8dispatchINS0_17rewrapped_handlerINS0_7binder2INS_3ssl6detail5io_opINS_19basic_stream_socketINS_2ip3tcpENS_21stream_socket_serviceISA_EEEENS6_12handshake_opENS0_15wrapped_handlerINS_10io_service6strandESt5_BindIFSt7_Mem_fnIMN14ws_websocketpp9transport4asio10tls_socket10connectionEFvSt8functionIFvRKSt10error_codeEESS_EESt10shared_ptrISO_ESU_St12_PlaceholderILi1EEEENS0_26is_continuation_if_runningEEEEESQ_yEES13_EEEEvRPNS1_11strand_implERT_"
 "_ZN4asio6detail14strand_service8dispatchINS0_17rewrapped_handlerINS0_7binder2INS_3ssl6detail5io_opINS_19basic_stream_socketINS_2ip3tcpENS_21stream_socket_serviceISA_EEEENS6_7read_opINS_17mutable_buffers_1EEENS0_7read_opINS5_6streamISD_EESF_NS0_19transfer_at_least_tENS0_15wrapped_handlerINS_10io_service6strandEN14ws_websocketpp9transport4asio20custom_alloc_handlerISt5_BindIFSt7_Mem_fnIMNSQ_10connectionINSO_6config15asio_tls_client16transport_configEEEFvSt8functionIFvRKSt10error_codeyEES12_yEESt10shared_ptrISY_ES14_St12_PlaceholderILi1EES1A_ILi2EEEEEENS0_26is_continuation_if_runningEEEEEEES10_yEES1F_EEEEvRPNS1_11strand_implERT_"
 "_ZN4asio6detail14strand_service8dispatchINS0_17rewrapped_handlerINS0_7binder2INS_3ssl6detail5io_opINS_19basic_stream_socketINS_2ip3tcpENS_21stream_socket_serviceISA_EEEENS6_8write_opINS0_17consuming_buffersINS_12const_bufferESt6vectorISG_SaISG_EEEEEENS0_8write_opINS5_6streamISD_EESJ_NS0_14transfer_all_tENS0_15wrapped_handlerINS_10io_service6strandEN14ws_websocketpp9transport4asio20custom_alloc_handlerISt5_BindIFSt7_Mem_fnIMNSV_10connectionINST_6config15asio_tls_client16transport_configEEEFvSt8functionIFvRKSt10error_codeEES17_yEESt10shared_ptrIS13_ES19_St12_PlaceholderILi1EES1F_ILi2EEEEEENS0_26is_continuation_if_runningEEEEEEES15_yEES1K_EEEEvRPNS1_11strand_implERT_"
 "_ZN4asio6detail14strand_service8dispatchINS0_17rewrapped_handlerINS0_7binder2INS0_15wrapped_handlerINS_10io_service6strandESt5_BindIFSt7_Mem_fnIMN14ws_websocketpp9transport4asio8endpointINSA_6config11asio_client16transport_configEEEFvSt10shared_ptrINSC_10connectionISG_EEESI_INS_20basic_waitable_timerINSt6chrono3_V212steady_clockENS_11wait_traitsISP_EENS_22waitable_timer_serviceISP_SR_EEEEESt8functionIFvRKSt10error_codeEESZ_NS_2ip23basic_resolver_iteratorINS12_3tcpEEEEEPSH_SL_SV_S11_St12_PlaceholderILi1EES1A_ILi2EEEENS0_26is_continuation_if_runningEEESX_S15_EES1E_EEEEvRPNS1_11strand_implERT_"
 "_ZN4asio6detail14strand_service8dispatchINS0_17rewrapped_handlerINS0_7binder2INS0_15wrapped_handlerINS_10io_service6strandESt5_BindIFSt7_Mem_fnIMN14ws_websocketpp9transport4asio8endpointINSA_6config15asio_tls_client16transport_configEEEFvSt10shared_ptrINSC_10connectionISG_EEESI_INS_20basic_waitable_timerINSt6chrono3_V212steady_clockENS_11wait_traitsISP_EENS_22waitable_timer_serviceISP_SR_EEEEESt8functionIFvRKSt10error_codeEESZ_NS_2ip23basic_resolver_iteratorINS12_3tcpEEEEEPSH_SL_SV_S11_St12_PlaceholderILi1EES1A_ILi2EEEENS0_26is_continuation_if_runningEEESX_S15_EES1E_EEEEvRPNS1_11strand_implERT_"
 "_ZN4asio6detail14strand_service8dispatchINS0_17rewrapped_handlerINS0_7binder2INS0_26read_until_delim_string_opINS_19basic_stream_socketINS_2ip3tcpENS_21stream_socket_serviceIS8_EEEENS_19basic_streambuf_refISaIcEEENS0_15wrapped_handlerINS_10io_service6strandESt5_BindIFSt7_Mem_fnIMN14ws_websocketpp9transport4asio10connectionINSK_6config11asio_client16transport_configEEEFvSt8functionIFvRKSt10error_codeEESV_yEESt10shared_ptrISR_ESX_St12_PlaceholderILi1EES13_ILi2EEEENS0_26is_continuation_if_runningEEEEEST_yEES17_EEEEvRPNS1_11strand_implERT_"
 "_ZN4asio6detail14strand_service8dispatchINS0_17rewrapped_handlerINS0_7binder2INS0_26read_until_delim_string_opINS_19basic_stream_socketINS_2ip3tcpENS_21stream_socket_serviceIS8_EEEENS_19basic_streambuf_refISaIcEEENS0_15wrapped_handlerINS_10io_service6strandESt5_BindIFSt7_Mem_fnIMN14ws_websocketpp9transport4asio10connectionINSK_6config15asio_tls_client16transport_configEEEFvSt8functionIFvRKSt10error_codeEESV_yEESt10shared_ptrISR_ESX_St12_PlaceholderILi1EES13_ILi2EEEENS0_26is_continuation_if_runningEEEEEST_yEES17_EEEEvRPNS1_11strand_implERT_"
 "_ZN4asio6detail14strand_service8dispatchINS0_17rewrapped_handlerINS0_7binder2INS0_7read_opINS_19basic_stream_socketINS_2ip3tcpENS_21stream_socket_serviceIS8_EEEENS_17mutable_buffers_1ENS0_19transfer_at_least_tENS0_15wrapped_handlerINS_10io_service6strandEN14ws_websocketpp9transport4asio20custom_alloc_handlerISt5_BindIFSt7_Mem_fnIMNSJ_10connectionINSH_6config11asio_client16transport_configEEEFvSt8functionIFvRKSt10error_codeyEESV_yEESt10shared_ptrISR_ESX_St12_PlaceholderILi1EES13_ILi2EEEEEENS0_26is_continuation_if_runningEEEEEST_yEES18_EEEEvRPNS1_11strand_implERT_"
 "_ZN4asio6detail14strand_service8dispatchINS0_17rewrapped_handlerINS0_7binder2INS0_8write_opINS_19basic_stream_socketINS_2ip3tcpENS_21stream_socket_serviceIS8_EEEENS_17mutable_buffers_1ENS0_14transfer_all_tENS_3ssl6detail5io_opISB_NSF_11shutdown_opENS0_15wrapped_handlerINS_10io_service6strandESt8functionIFvRKSt10error_codeEENS0_26is_continuation_if_runningEEEEEEESM_yEESQ_EEEEvRPNS1_11strand_implERT_"
 "_ZN4asio6detail14strand_service8dispatchINS0_17rewrapped_handlerINS0_7binder2INS0_8write_opINS_19basic_stream_socketINS_2ip3tcpENS_21stream_socket_serviceIS8_EEEENS_17mutable_buffers_1ENS0_14transfer_all_tENS_3ssl6detail5io_opISB_NSF_12handshake_opENS0_15wrapped_handlerINS_10io_service6strandESt5_BindIFSt7_Mem_fnIMN14ws_websocketpp9transport4asio10tls_socket10connectionEFvSt8functionIFvRKSt10error_codeEESV_EESt10shared_ptrISR_ESX_St12_PlaceholderILi1EEEENS0_26is_continuation_if_runningEEEEEEEST_yEES16_EEEEvRPNS1_11strand_implERT_"
 "_ZN4asio6detail14strand_service8dispatchINS0_17rewrapped_handlerINS0_7binder2INS0_8write_opINS_19basic_stream_socketINS_2ip3tcpENS_21stream_socket_serviceIS8_EEEENS_17mutable_buffers_1ENS0_14transfer_all_tENS_3ssl6detail5io_opISB_NSF_7read_opISC_EENS0_7read_opINSE_6streamISB_EESC_NS0_19transfer_at_least_tENS0_15wrapped_handlerINS_10io_service6strandEN14ws_websocketpp9transport4asio20custom_alloc_handlerISt5_BindIFSt7_Mem_fnIMNSS_10connectionINSQ_6config15asio_tls_client16transport_configEEEFvSt8functionIFvRKSt10error_codeyEES14_yEESt10shared_ptrIS10_ES16_St12_PlaceholderILi1EES1C_ILi2EEEEEENS0_26is_continuation_if_runningEEEEEEEEES12_yEES1H_EEEEvRPNS1_11strand_implERT_"
 "_ZN4asio6detail14strand_service8dispatchINS0_17rewrapped_handlerINS0_7binder2INS0_8write_opINS_19basic_stream_socketINS_2ip3tcpENS_21stream_socket_serviceIS8_EEEENS_17mutable_buffers_1ENS0_14transfer_all_tENS_3ssl6detail5io_opISB_NSF_8write_opINS0_17consuming_buffersINS_12const_bufferESt6vectorISJ_SaISJ_EEEEEENS5_INSE_6streamISB_EESM_SD_NS0_15wrapped_handlerINS_10io_service6strandEN14ws_websocketpp9transport4asio20custom_alloc_handlerISt5_BindIFSt7_Mem_fnIMNSW_10connectionINSU_6config15asio_tls_client16transport_configEEEFvSt8functionIFvRKSt10error_codeEES18_yEESt10shared_ptrIS14_ES1A_St12_PlaceholderILi1EES1G_ILi2EEEEEENS0_26is_continuation_if_runningEEEEEEEEES16_yEES1L_EEEEvRPNS1_11strand_implERT_"
 "_ZN4asio6detail14strand_service8dispatchINS0_17rewrapped_handlerINS0_7binder2INS0_8write_opINS_19basic_stream_socketINS_2ip3tcpENS_21stream_socket_serviceIS8_EEEESt6vectorINS_12const_bufferESaISD_EENS0_14transfer_all_tENS0_15wrapped_handlerINS_10io_service6strandEN14ws_websocketpp9transport4asio20custom_alloc_handlerISt5_BindIFSt7_Mem_fnIMNSM_10connectionINSK_6config11asio_client16transport_configEEEFvSt8functionIFvRKSt10error_codeEESY_yEESt10shared_ptrISU_ES10_St12_PlaceholderILi1EES16_ILi2EEEEEENS0_26is_continuation_if_runningEEEEESW_yEES1B_EEEEvRPNS1_11strand_implERT_"
 "_ZN4asio6detail14strand_service8dispatchINS0_17rewrapped_handlerINS0_7binder2INS0_8write_opINS_19basic_stream_socketINS_2ip3tcpENS_21stream_socket_serviceIS8_EEEESt6vectorINS_12const_bufferESaISD_EENS0_14transfer_all_tENS0_15wrapped_handlerINS_10io_service6strandESt5_BindIFSt7_Mem_fnIMN14ws_websocketpp9transport4asio10connectionINSM_6config11asio_client16transport_configEEEFvSt8functionIFvRKSt10error_codeEESX_EESt10shared_ptrIST_ESZ_St12_PlaceholderILi1EEEENS0_26is_continuation_if_runningEEEEESV_yEES18_EEEEvRPNS1_11strand_implERT_"
 "_ZN4asio6detail14strand_service8dispatchINS0_17rewrapped_handlerINS0_7binder2INS0_8write_opINS_19basic_stream_socketINS_2ip3tcpENS_21stream_socket_serviceIS8_EEEESt6vectorINS_12const_bufferESaISD_EENS0_14transfer_all_tENS0_15wrapped_handlerINS_10io_service6strandESt5_BindIFSt7_Mem_fnIMN14ws_websocketpp9transport4asio10connectionINSM_6config15asio_tls_client16transport_configEEEFvSt8functionIFvRKSt10error_codeEESX_EESt10shared_ptrIST_ESZ_St12_PlaceholderILi1EEEENS0_26is_continuation_if_runningEEEEESV_yEES18_EEEEvRPNS1_11strand_implERT_"
 "_ZN4asio6detail14strand_service8dispatchINS0_7binder1IRSt5_BindIFSt7_Mem_fnIMN14ws_websocketpp9transport4asio10connectionINS6_6config11asio_client16transport_configEEEFvSt10shared_ptrINS_20basic_waitable_timerINSt6chrono3_V212steady_clockENS_11wait_traitsISI_EENS_22waitable_timer_serviceISI_SK_EEEEESt8functionIFvRKSt10error_codeEESS_EESE_ISD_ESO_SU_St12_PlaceholderILi1EEEESQ_EEEEvRPNS1_11strand_implERT_"
 "_ZN4asio6detail14strand_service8dispatchINS0_7binder1IRSt5_BindIFSt7_Mem_fnIMN14ws_websocketpp9transport4asio10connectionINS6_6config15asio_tls_client16transport_configEEEFvSt10shared_ptrINS_20basic_waitable_timerINSt6chrono3_V212steady_clockENS_11wait_traitsISI_EENS_22waitable_timer_serviceISI_SK_EEEEESt8functionIFvRKSt10error_codeEESS_EESE_ISD_ESO_SU_St12_PlaceholderILi1EEEESQ_EEEEvRPNS1_11strand_implERT_"
 "_ZN4asio6detail14strand_service8dispatchINS0_7binder1IRSt5_BindIFSt7_Mem_fnIMN14ws_websocketpp9transport4asio10tls_socket10connectionEFvSt8functionIFvRKSt10error_codeEESE_EESt10shared_ptrISA_ESG_St12_PlaceholderILi1EEEESC_EEEEvRPNS1_11strand_implERT_"
 "_ZN4asio6detail14strand_service8dispatchINS0_7binder1IRSt8functionIFvRKSt10error_codeEES5_EEEEvRPNS1_11strand_implERT_"
 "_ZN4asio6detail14strand_service8dispatchINS0_7binder2IRN14ws_websocketpp9transport4asio20custom_alloc_handlerISt5_BindIFSt7_Mem_fnIMNS6_10connectionINS4_6config11asio_client16transport_configEEEFvSt8functionIFvRKSt10error_codeEESI_yEESt10shared_ptrISE_ESK_St12_PlaceholderILi1EESQ_ILi2EEEEEESG_yEEEEvRPNS1_11strand_implERT_"
 "_ZN4asio6detail14strand_service8dispatchINS0_7binder2IRN14ws_websocketpp9transport4asio20custom_alloc_handlerISt5_BindIFSt7_Mem_fnIMNS6_10connectionINS4_6config11asio_client16transport_configEEEFvSt8functionIFvRKSt10error_codeyEESI_yEESt10shared_ptrISE_ESK_St12_PlaceholderILi1EESQ_ILi2EEEEEESG_yEEEEvRPNS1_11strand_implERT_"
 "_ZN4asio6detail14strand_service8dispatchINS0_7binder2IRN14ws_websocketpp9transport4asio20custom_alloc_handlerISt5_BindIFSt7_Mem_fnIMNS6_10connectionINS4_6config15asio_tls_client16transport_configEEEFvSt8functionIFvRKSt10error_codeEESI_yEESt10shared_ptrISE_ESK_St12_PlaceholderILi1EESQ_ILi2EEEEEESG_yEEEEvRPNS1_11strand_implERT_"
 "_ZN4asio6detail14strand_service8dispatchINS0_7binder2IRN14ws_websocketpp9transport4asio20custom_alloc_handlerISt5_BindIFSt7_Mem_fnIMNS6_10connectionINS4_6config15asio_tls_client16transport_configEEEFvSt8functionIFvRKSt10error_codeyEESI_yEESt10shared_ptrISE_ESK_St12_PlaceholderILi1EESQ_ILi2EEEEEESG_yEEEEvRPNS1_11strand_implERT_"
 "_ZN4asio6detail14strand_service8dispatchINS0_7binder2IRSt5_BindIFSt7_Mem_fnIMN14ws_websocketpp9transport4asio10connectionINS6_6config11asio_client16transport_configEEEFvSt8functionIFvRKSt10error_codeEESH_EESt10shared_ptrISD_ESJ_St12_PlaceholderILi1EEEESF_yEEEEvRPNS1_11strand_implERT_"
 "_ZN4asio6detail14strand_service8dispatchINS0_7binder2IRSt5_BindIFSt7_Mem_fnIMN14ws_websocketpp9transport4asio10connectionINS6_6config11asio_client16transport_configEEEFvSt8functionIFvRKSt10error_codeEESH_yEESt10shared_ptrISD_ESJ_St12_PlaceholderILi1EESP_ILi2EEEESF_yEEEEvRPNS1_11strand_implERT_"
 "_ZN4asio6detail14strand_service8dispatchINS0_7binder2IRSt5_BindIFSt7_Mem_fnIMN14ws_websocketpp9transport4asio10connectionINS6_6config15asio_tls_client16transport_configEEEFvSt8functionIFvRKSt10error_codeEESH_EESt10shared_ptrISD_ESJ_St12_PlaceholderILi1EEEESF_yEEEEvRPNS1_11strand_implERT_"
 "_ZN4asio6detail14strand_service8dispatchINS0_7binder2IRSt5_BindIFSt7_Mem_fnIMN14ws_websocketpp9transport4asio10connectionINS6_6config15asio_tls_client16transport_configEEEFvSt8functionIFvRKSt10error_codeEESH_yEESt10shared_ptrISD_ESJ_St12_PlaceholderILi1EESP_ILi2EEEESF_yEEEEvRPNS1_11strand_implERT_"
 "_ZN4asio6detail14strand_service8dispatchINS0_7binder2IRSt5_BindIFSt7_Mem_fnIMN14ws_websocketpp9transport4asio8endpointINS6_6config11asio_client16transport_configEEEFvSt10shared_ptrINS8_10connectionISC_EEESE_INS_20basic_waitable_timerINSt6chrono3_V212steady_clockENS_11wait_traitsISL_EENS_22waitable_timer_serviceISL_SN_EEEEESt8functionIFvRKSt10error_codeEESV_EEPSD_SH_SR_SX_St12_PlaceholderILi1EEEEST_NS_2ip23basic_resolver_iteratorINS17_3tcpEEEEEEEvRPNS1_11strand_implERT_"
 "_ZN4asio6detail14strand_service8dispatchINS0_7binder2IRSt5_BindIFSt7_Mem_fnIMN14ws_websocketpp9transport4asio8endpointINS6_6config11asio_client16transport_configEEEFvSt10shared_ptrINS8_10connectionISC_EEESE_INS_20basic_waitable_timerINSt6chrono3_V212steady_clockENS_11wait_traitsISL_EENS_22waitable_timer_serviceISL_SN_EEEEESt8functionIFvRKSt10error_codeEESV_NS_2ip23basic_resolver_iteratorINSY_3tcpEEEEEPSD_SH_SR_SX_St12_PlaceholderILi1EES16_ILi2EEEEST_S11_EEEEvRPNS1_11strand_implERT_"
 "_ZN4asio6detail14strand_service8dispatchINS0_7binder2IRSt5_BindIFSt7_Mem_fnIMN14ws_websocketpp9transport4asio8endpointINS6_6config15asio_tls_client16transport_configEEEFvSt10shared_ptrINS8_10connectionISC_EEESE_INS_20basic_waitable_timerINSt6chrono3_V212steady_clockENS_11wait_traitsISL_EENS_22waitable_timer_serviceISL_SN_EEEEESt8functionIFvRKSt10error_codeEESV_EEPSD_SH_SR_SX_St12_PlaceholderILi1EEEEST_NS_2ip23basic_resolver_iteratorINS17_3tcpEEEEEEEvRPNS1_11strand_implERT_"
 "_ZN4asio6detail14strand_service8dispatchINS0_7binder2IRSt5_BindIFSt7_Mem_fnIMN14ws_websocketpp9transport4asio8endpointINS6_6config15asio_tls_client16transport_configEEEFvSt10shared_ptrINS8_10connectionISC_EEESE_INS_20basic_waitable_timerINSt6chrono3_V212steady_clockENS_11wait_traitsISL_EENS_22waitable_timer_serviceISL_SN_EEEEESt8functionIFvRKSt10error_codeEESV_NS_2ip23basic_resolver_iteratorINSY_3tcpEEEEEPSD_SH_SR_SX_St12_PlaceholderILi1EES16_ILi2EEEEST_S11_EEEEvRPNS1_11strand_implERT_"
 "_ZN4asio6detail14strand_service8dispatchISt8functionIFvvEEEEvRPNS1_11strand_implERT_"
 "_ZN4asio6detail14strand_serviceD0Ev"
 "_ZN4asio6detail14strand_serviceD1Ev"
 "_ZN4asio6detail15system_categoryD0Ev"
 "_ZN4asio6detail15system_categoryD1Ev"
 "_ZN4asio6detail15throw_exceptionISt12system_errorEEvRKT_"
 "_ZN4asio6detail15win_global_implINS_15system_executor12context_implEE8tss_ptr_E"
 "_ZN4asio6detail15win_thread_baseINS0_10win_threadEE18terminate_threads_E"
 "_ZN4asio6detail16service_registry14do_use_serviceERKNS_17execution_context7service3keyEPFPS3_PvES8_"
 "_ZN4asio6detail16service_registry6createINS_21stream_socket_serviceINS_2ip3tcpEEENS_10io_serviceEEEPNS_17execution_context7serviceEPv"
 "_ZN4asio6detail16service_registry6createINS_22waitable_timer_serviceINSt6chrono3_V212steady_clockENS_11wait_traitsIS6_EEEENS_10io_serviceEEEPNS_17execution_context7serviceEPv"
 "_ZN4asio6detail16service_registry6createINS_23socket_acceptor_serviceINS_2ip3tcpEEENS_10io_serviceEEEPNS_17execution_context7serviceEPv"
 "_ZN4asio6detail16service_registry6createINS_2ip16resolver_serviceINS3_3tcpEEENS_10io_serviceEEEPNS_17execution_context7serviceEPv"
 "_ZN4asio6detail16service_registry6createINS0_14select_reactorENS_10io_serviceEEEPNS_17execution_context7serviceEPv"
 "_ZN4asio6detail16service_registry6createINS0_14strand_serviceENS_10io_serviceEEEPNS_17execution_context7serviceEPv"
 "_ZN4asio6detail16service_registry6createINS0_19win_iocp_io_serviceENS_17execution_contextEEEPNS4_7serviceEPv"
 "_ZN4asio6detail17consuming_buffersINS_12const_bufferESt6vectorIS2_SaIS2_EEE7consumeEy"
 "_ZN4asio6detail17consuming_buffersINS_12const_bufferESt6vectorIS2_SaIS2_EEEC1ERKS6_"
 "_ZN4asio6detail17rewrapped_handlerINS0_15wrapped_handlerINS_10io_service6strandESt8functionIFvvEENS0_26is_continuation_if_runningEEES7_ED1Ev"
 "_ZN4asio6detail17rewrapped_handlerINS0_7binder1INS_3ssl6detail5io_opINS_19basic_stream_socketINS_2ip3tcpENS_21stream_socket_serviceIS8_EEEENS4_11shutdown_opENS0_15wrapped_handlerINS_10io_service6strandESt8functionIFvRKSt10error_codeEENS0_26is_continuation_if_runningEEEEESH_EESL_ED1Ev"
 "_ZN4asio6detail17rewrapped_handlerINS0_7binder2INS_3ssl6detail5io_opINS_19basic_stream_socketINS_2ip3tcpENS_21stream_socket_serviceIS8_EEEENS4_11shutdown_opENS0_15wrapped_handlerINS_10io_service6strandESt8functionIFvRKSt10error_codeEENS0_26is_continuation_if_runningEEEEESH_yEESL_ED1Ev"
 "_ZN4asio6detail17rewrapped_handlerINS0_7binder2INS0_8write_opINS_19basic_stream_socketINS_2ip3tcpENS_21stream_socket_serviceIS6_EEEENS_17mutable_buffers_1ENS0_14transfer_all_tENS_3ssl6detail5io_opIS9_NSD_11shutdown_opENS0_15wrapped_handlerINS_10io_service6strandESt8functionIFvRKSt10error_codeEENS0_26is_continuation_if_runningEEEEEEESK_yEESO_ED1Ev"
 "_ZN4asio6detail17winsock_init_base7cleanupERNS1_4dataE"
 "_ZN4asio6detail18completion_handlerINS0_15wrapped_handlerINS_10io_service6strandESt8functionIFvvEENS0_26is_continuation_if_runningEEEE11do_completeEPvPNS0_18win_iocp_operationERKSt10error_codey"
 "_ZN4asio6detail18completion_handlerINS0_15wrapped_handlerINS_10io_service6strandESt8functionIFvvEENS0_26is_continuation_if_runningEEEE3ptr5resetEv"
 "_ZN4asio6detail18completion_handlerINS0_17rewrapped_handlerINS0_15wrapped_handlerINS_10io_service6strandESt8functionIFvvEENS0_26is_continuation_if_runningEEES8_EEE11do_completeEPvPNS0_18win_iocp_operationERKSt10error_codey"
 "_ZN4asio6detail18completion_handlerINS0_17rewrapped_handlerINS0_15wrapped_handlerINS_10io_service6strandESt8functionIFvvEENS0_26is_continuation_if_runningEEES8_EEE3ptr5resetEv"
 "_ZN4asio6detail18completion_handlerINS0_17rewrapped_handlerINS0_7binder1INS_3ssl6detail5io_opINS_19basic_stream_socketINS_2ip3tcpENS_21stream_socket_serviceIS9_EEEENS5_11shutdown_opENS0_15wrapped_handlerINS_10io_service6strandESt8functionIFvRKSt10error_codeEENS0_26is_continuation_if_runningEEEEESI_EESM_EEE11do_completeEPvPNS0_18win_iocp_operationESK_y"
 "_ZN4asio6detail18completion_handlerINS0_17rewrapped_handlerINS0_7binder1INS_3ssl6detail5io_opINS_19basic_stream_socketINS_2ip3tcpENS_21stream_socket_serviceIS9_EEEENS5_11shutdown_opENS0_15wrapped_handlerINS_10io_service6strandESt8functionIFvRKSt10error_codeEENS0_26is_continuation_if_runningEEEEESI_EESM_EEE3ptr5resetEv"
 "_ZN4asio6detail18completion_handlerINS0_17rewrapped_handlerINS0_7binder1INS_3ssl6detail5io_opINS_19basic_stream_socketINS_2ip3tcpENS_21stream_socket_serviceIS9_EEEENS5_12handshake_opENS0_15wrapped_handlerINS_10io_service6strandESt5_BindIFSt7_Mem_fnIMN14ws_websocketpp9transport4asio10tls_socket10connectionEFvSt8functionIFvRKSt10error_codeEESR_EESt10shared_ptrISN_EST_St12_PlaceholderILi1EEEENS0_26is_continuation_if_runningEEEEESP_EES12_EEE11do_completeEPvPNS0_18win_iocp_operationESR_y"
 "_ZN4asio6detail18completion_handlerINS0_17rewrapped_handlerINS0_7binder1INS_3ssl6detail5io_opINS_19basic_stream_socketINS_2ip3tcpENS_21stream_socket_serviceIS9_EEEENS5_12handshake_opENS0_15wrapped_handlerINS_10io_service6strandESt5_BindIFSt7_Mem_fnIMN14ws_websocketpp9transport4asio10tls_socket10connectionEFvSt8functionIFvRKSt10error_codeEESR_EESt10shared_ptrISN_EST_St12_PlaceholderILi1EEEENS0_26is_continuation_if_runningEEEEESP_EES12_EEE3ptr5resetEv"
 "_ZN4asio6detail18completion_handlerINS0_17rewrapped_handlerINS0_7binder1INS_3ssl6detail5io_opINS_19basic_stream_socketINS_2ip3tcpENS_21stream_socket_serviceIS9_EEEENS5_7read_opINS_17mutable_buffers_1EEENS0_7read_opINS4_6streamISC_EESE_NS0_19transfer_at_least_tENS0_15wrapped_handlerINS_10io_service6strandEN14ws_websocketpp9transport4asio20custom_alloc_handlerISt5_BindIFSt7_Mem_fnIMNSP_10connectionINSN_6config15asio_tls_client16transport_configEEEFvSt8functionIFvRKSt10error_codeyEES11_yEESt10shared_ptrISX_ES13_St12_PlaceholderILi1EES19_ILi2EEEEEENS0_26is_continuation_if_runningEEEEEEESZ_EES1E_EEE11do_completeEPvPNS0_18win_iocp_operationES11_y"
 "_ZN4asio6detail18completion_handlerINS0_17rewrapped_handlerINS0_7binder1INS_3ssl6detail5io_opINS_19basic_stream_socketINS_2ip3tcpENS_21stream_socket_serviceIS9_EEEENS5_7read_opINS_17mutable_buffers_1EEENS0_7read_opINS4_6streamISC_EESE_NS0_19transfer_at_least_tENS0_15wrapped_handlerINS_10io_service6strandEN14ws_websocketpp9transport4asio20custom_alloc_handlerISt5_BindIFSt7_Mem_fnIMNSP_10connectionINSN_6config15asio_tls_client16transport_configEEEFvSt8functionIFvRKSt10error_codeyEES11_yEESt10shared_ptrISX_ES13_St12_PlaceholderILi1EES19_ILi2EEEEEENS0_26is_continuation_if_runningEEEEEEESZ_EES1E_EEE3ptr5resetEv"
 "_ZN4asio6detail18completion_handlerINS0_17rewrapped_handlerINS0_7binder1INS_3ssl6detail5io_opINS_19basic_stream_socketINS_2ip3tcpENS_21stream_socket_serviceIS9_EEEENS5_8write_opINS0_17consuming_buffersINS_12const_bufferESt6vectorISF_SaISF_EEEEEENS0_8write_opINS4_6streamISC_EESI_NS0_14transfer_all_tENS0_15wrapped_handlerINS_10io_service6strandEN14ws_websocketpp9transport4asio20custom_alloc_handlerISt5_BindIFSt7_Mem_fnIMNSU_10connectionINSS_6config15asio_tls_client16transport_configEEEFvSt8functionIFvRKSt10error_codeEES16_yEESt10shared_ptrIS12_ES18_St12_PlaceholderILi1EES1E_ILi2EEEEEENS0_26is_continuation_if_runningEEEEEEES14_EES1J_EEE11do_completeEPvPNS0_18win_iocp_operationES16_y"
 "_ZN4asio6detail18completion_handlerINS0_17rewrapped_handlerINS0_7binder1INS_3ssl6detail5io_opINS_19basic_stream_socketINS_2ip3tcpENS_21stream_socket_serviceIS9_EEEENS5_8write_opINS0_17consuming_buffersINS_12const_bufferESt6vectorISF_SaISF_EEEEEENS0_8write_opINS4_6streamISC_EESI_NS0_14transfer_all_tENS0_15wrapped_handlerINS_10io_service6strandEN14ws_websocketpp9transport4asio20custom_alloc_handlerISt5_BindIFSt7_Mem_fnIMNSU_10connectionINSS_6config15asio_tls_client16transport_configEEEFvSt8functionIFvRKSt10error_codeEES16_yEESt10shared_ptrIS12_ES18_St12_PlaceholderILi1EES1E_ILi2EEEEEENS0_26is_continuation_if_runningEEEEEEES14_EES1J_EEE3ptr5resetEv"
 "_ZN4asio6detail18completion_handlerINS0_17rewrapped_handlerINS0_7binder1INS0_10connect_opINS_2ip3tcpENS_21stream_socket_serviceIS6_EENS5_23basic_resolver_iteratorIS6_EENS0_25default_connect_conditionENS0_15wrapped_handlerINS_10io_service6strandESt5_BindIFSt7_Mem_fnIMN14ws_websocketpp9transport4asio8endpointINSH_6config11asio_client16transport_configEEEFvSt10shared_ptrINSJ_10connectionISN_EEESP_INS_20basic_waitable_timerINSt6chrono3_V212steady_clockENS_11wait_traitsISW_EENS_22waitable_timer_serviceISW_SY_EEEEESt8functionIFvRKSt10error_codeEES16_EEPSO_SS_S12_S18_St12_PlaceholderILi1EEEENS0_26is_continuation_if_runningEEEEES14_EES1G_EEE11do_completeEPvPNS0_18win_iocp_operationES16_y"
 "_ZN4asio6detail18completion_handlerINS0_17rewrapped_handlerINS0_7binder1INS0_10connect_opINS_2ip3tcpENS_21stream_socket_serviceIS6_EENS5_23basic_resolver_iteratorIS6_EENS0_25default_connect_conditionENS0_15wrapped_handlerINS_10io_service6strandESt5_BindIFSt7_Mem_fnIMN14ws_websocketpp9transport4asio8endpointINSH_6config11asio_client16transport_configEEEFvSt10shared_ptrINSJ_10connectionISN_EEESP_INS_20basic_waitable_timerINSt6chrono3_V212steady_clockENS_11wait_traitsISW_EENS_22waitable_timer_serviceISW_SY_EEEEESt8functionIFvRKSt10error_codeEES16_EEPSO_SS_S12_S18_St12_PlaceholderILi1EEEENS0_26is_continuation_if_runningEEEEES14_EES1G_EEE3ptr5resetEv"
 "_ZN4asio6detail18completion_handlerINS0_17rewrapped_handlerINS0_7binder1INS0_10connect_opINS_2ip3tcpENS_21stream_socket_serviceIS6_EENS5_23basic_resolver_iteratorIS6_EENS0_25default_connect_conditionENS0_15wrapped_handlerINS_10io_service6strandESt5_BindIFSt7_Mem_fnIMN14ws_websocketpp9transport4asio8endpointINSH_6config15asio_tls_client16transport_configEEEFvSt10shared_ptrINSJ_10connectionISN_EEESP_INS_20basic_waitable_timerINSt6chrono3_V212steady_clockENS_11wait_traitsISW_EENS_22waitable_timer_serviceISW_SY_EEEEESt8functionIFvRKSt10error_codeEES16_EEPSO_SS_S12_S18_St12_PlaceholderILi1EEEENS0_26is_continuation_if_runningEEEEES14_EES1G_EEE11do_completeEPvPNS0_18win_iocp_operationES16_y"
 "_ZN4asio6detail18completion_handlerINS0_17rewrapped_handlerINS0_7binder1INS0_10connect_opINS_2ip3tcpENS_21stream_socket_serviceIS6_EENS5_23basic_resolver_iteratorIS6_EENS0_25default_connect_conditionENS0_15wrapped_handlerINS_10io_service6strandESt5_BindIFSt7_Mem_fnIMN14ws_websocketpp9transport4asio8endpointINSH_6config15asio_tls_client16transport_configEEEFvSt10shared_ptrINSJ_10connectionISN_EEESP_INS_20basic_waitable_timerINSt6chrono3_V212steady_clockENS_11wait_traitsISW_EENS_22waitable_timer_serviceISW_SY_EEEEESt8functionIFvRKSt10error_codeEES16_EEPSO_SS_S12_S18_St12_PlaceholderILi1EEEENS0_26is_continuation_if_runningEEEEES14_EES1G_EEE3ptr5resetEv"
 "_ZN4asio6detail18completion_handlerINS0_17rewrapped_handlerINS0_7binder1INS0_15wrapped_handlerINS_10io_service6strandESt5_BindIFSt7_Mem_fnIMN14ws_websocketpp9transport4asio10connectionINS9_6config11asio_client16transport_configEEEFvSt10shared_ptrINS_20basic_waitable_timerINSt6chrono3_V212steady_clockENS_11wait_traitsISL_EENS_22waitable_timer_serviceISL_SN_EEEEESt8functionIFvRKSt10error_codeEESV_EESH_ISG_ESR_SX_St12_PlaceholderILi1EEEENS0_26is_continuation_if_runningEEEST_EES15_EEE11do_completeEPvPNS0_18win_iocp_operationESV_y"
 "_ZN4asio6detail18completion_handlerINS0_17rewrapped_handlerINS0_7binder1INS0_15wrapped_handlerINS_10io_service6strandESt5_BindIFSt7_Mem_fnIMN14ws_websocketpp9transport4asio10connectionINS9_6config11asio_client16transport_configEEEFvSt10shared_ptrINS_20basic_waitable_timerINSt6chrono3_V212steady_clockENS_11wait_traitsISL_EENS_22waitable_timer_serviceISL_SN_EEEEESt8functionIFvRKSt10error_codeEESV_EESH_ISG_ESR_SX_St12_PlaceholderILi1EEEENS0_26is_continuation_if_runningEEEST_EES15_EEE3ptr5resetEv"
 "_ZN4asio6detail18completion_handlerINS0_17rewrapped_handlerINS0_7binder1INS0_15wrapped_handlerINS_10io_service6strandESt5_BindIFSt7_Mem_fnIMN14ws_websocketpp9transport4asio10connectionINS9_6config15asio_tls_client16transport_configEEEFvSt10shared_ptrINS_20basic_waitable_timerINSt6chrono3_V212steady_clockENS_11wait_traitsISL_EENS_22waitable_timer_serviceISL_SN_EEEEESt8functionIFvRKSt10error_codeEESV_EESH_ISG_ESR_SX_St12_PlaceholderILi1EEEENS0_26is_continuation_if_runningEEEST_EES15_EEE11do_completeEPvPNS0_18win_iocp_operationESV_y"
 "_ZN4asio6detail18completion_handlerINS0_17rewrapped_handlerINS0_7binder1INS0_15wrapped_handlerINS_10io_service6strandESt5_BindIFSt7_Mem_fnIMN14ws_websocketpp9transport4asio10connectionINS9_6config15asio_tls_client16transport_configEEEFvSt10shared_ptrINS_20basic_waitable_timerINSt6chrono3_V212steady_clockENS_11wait_traitsISL_EENS_22waitable_timer_serviceISL_SN_EEEEESt8functionIFvRKSt10error_codeEESV_EESH_ISG_ESR_SX_St12_PlaceholderILi1EEEENS0_26is_continuation_if_runningEEEST_EES15_EEE3ptr5resetEv"
 "_ZN4asio6detail18completion_handlerINS0_17rewrapped_handlerINS0_7binder1IRNS0_10connect_opINS_2ip3tcpENS_21stream_socket_serviceIS6_EENS5_23basic_resolver_iteratorIS6_EENS0_25default_connect_conditionENS0_15wrapped_handlerINS_10io_service6strandESt5_BindIFSt7_Mem_fnIMN14ws_websocketpp9transport4asio8endpointINSH_6config11asio_client16transport_configEEEFvSt10shared_ptrINSJ_10connectionISN_EEESP_INS_20basic_waitable_timerINSt6chrono3_V212steady_clockENS_11wait_traitsISW_EENS_22waitable_timer_serviceISW_SY_EEEEESt8functionIFvRKSt10error_codeEES16_EEPSO_SS_S12_S18_St12_PlaceholderILi1EEEENS0_26is_continuation_if_runningEEEEES14_EES1G_EEE11do_completeEPvPNS0_18win_iocp_operationES16_y"
 "_ZN4asio6detail18completion_handlerINS0_17rewrapped_handlerINS0_7binder1IRNS0_10connect_opINS_2ip3tcpENS_21stream_socket_serviceIS6_EENS5_23basic_resolver_iteratorIS6_EENS0_25default_connect_conditionENS0_15wrapped_handlerINS_10io_service6strandESt5_BindIFSt7_Mem_fnIMN14ws_websocketpp9transport4asio8endpointINSH_6config11asio_client16transport_configEEEFvSt10shared_ptrINSJ_10connectionISN_EEESP_INS_20basic_waitable_timerINSt6chrono3_V212steady_clockENS_11wait_traitsISW_EENS_22waitable_timer_serviceISW_SY_EEEEESt8functionIFvRKSt10error_codeEES16_EEPSO_SS_S12_S18_St12_PlaceholderILi1EEEENS0_26is_continuation_if_runningEEEEES14_EES1G_EEE3ptr5resetEv"
 "_ZN4asio6detail18completion_handlerINS0_17rewrapped_handlerINS0_7binder1IRNS0_10connect_opINS_2ip3tcpENS_21stream_socket_serviceIS6_EENS5_23basic_resolver_iteratorIS6_EENS0_25default_connect_conditionENS0_15wrapped_handlerINS_10io_service6strandESt5_BindIFSt7_Mem_fnIMN14ws_websocketpp9transport4asio8endpointINSH_6config15asio_tls_client16transport_configEEEFvSt10shared_ptrINSJ_10connectionISN_EEESP_INS_20basic_waitable_timerINSt6chrono3_V212steady_clockENS_11wait_traitsISW_EENS_22waitable_timer_serviceISW_SY_EEEEESt8functionIFvRKSt10error_codeEES16_EEPSO_SS_S12_S18_St12_PlaceholderILi1EEEENS0_26is_continuation_if_runningEEEEES14_EES1G_EEE11do_completeEPvPNS0_18win_iocp_operationES16_y"
 "_ZN4asio6detail18completion_handlerINS0_17rewrapped_handlerINS0_7binder1IRNS0_10connect_opINS_2ip3tcpENS_21stream_socket_serviceIS6_EENS5_23basic_resolver_iteratorIS6_EENS0_25default_connect_conditionENS0_15wrapped_handlerINS_10io_service6strandESt5_BindIFSt7_Mem_fnIMN14ws_websocketpp9transport4asio8endpointINSH_6config15asio_tls_client16transport_configEEEFvSt10shared_ptrINSJ_10connectionISN_EEESP_INS_20basic_waitable_timerINSt6chrono3_V212steady_clockENS_11wait_traitsISW_EENS_22waitable_timer_serviceISW_SY_EEEEESt8functionIFvRKSt10error_codeEES16_EEPSO_SS_S12_S18_St12_PlaceholderILi1EEEENS0_26is_continuation_if_runningEEEEES14_EES1G_EEE3ptr5resetEv"
 "_ZN4asio6detail18completion_handlerINS0_17rewrapped_handlerINS0_7binder2INS_3ssl6detail5io_opINS_19basic_stream_socketINS_2ip3tcpENS_21stream_socket_serviceIS9_EEEENS5_11shutdown_opENS0_15wrapped_handlerINS_10io_service6strandESt8functionIFvRKSt10error_codeEENS0_26is_continuation_if_runningEEEEESI_yEESM_EEE11do_completeEPvPNS0_18win_iocp_operationESK_y"
 "_ZN4asio6detail18completion_handlerINS0_17rewrapped_handlerINS0_7binder2INS_3ssl6detail5io_opINS_19basic_stream_socketINS_2ip3tcpENS_21stream_socket_serviceIS9_EEEENS5_11shutdown_opENS0_15wrapped_handlerINS_10io_service6strandESt8functionIFvRKSt10error_codeEENS0_26is_continuation_if_runningEEEEESI_yEESM_EEE3ptr5resetEv"
 "_ZN4asio6detail18completion_handlerINS0_17rewrapped_handlerINS0_7binder2INS_3ssl6detail5io_opINS_19basic_stream_socketINS_2ip3tcpENS_21stream_socket_serviceIS9_EEEENS5_12handshake_opENS0_15wrapped_handlerINS_10io_service6strandESt5_BindIFSt7_Mem_fnIMN14ws_websocketpp9transport4asio10tls_socket10connectionEFvSt8functionIFvRKSt10error_codeEESR_EESt10shared_ptrISN_EST_St12_PlaceholderILi1EEEENS0_26is_continuation_if_runningEEEEESP_yEES12_EEE11do_completeEPvPNS0_18win_iocp_operationESR_y"
 "_ZN4asio6detail18completion_handlerINS0_17rewrapped_handlerINS0_7binder2INS_3ssl6detail5io_opINS_19basic_stream_socketINS_2ip3tcpENS_21stream_socket_serviceIS9_EEEENS5_12handshake_opENS0_15wrapped_handlerINS_10io_service6strandESt5_BindIFSt7_Mem_fnIMN14ws_websocketpp9transport4asio10tls_socket10connectionEFvSt8functionIFvRKSt10error_codeEESR_EESt10shared_ptrISN_EST_St12_PlaceholderILi1EEEENS0_26is_continuation_if_runningEEEEESP_yEES12_EEE3ptr5resetEv"
 "_ZN4asio6detail18completion_handlerINS0_17rewrapped_handlerINS0_7binder2INS_3ssl6detail5io_opINS_19basic_stream_socketINS_2ip3tcpENS_21stream_socket_serviceIS9_EEEENS5_7read_opINS_17mutable_buffers_1EEENS0_7read_opINS4_6streamISC_EESE_NS0_19transfer_at_least_tENS0_15wrapped_handlerINS_10io_service6strandEN14ws_websocketpp9transport4asio20custom_alloc_handlerISt5_BindIFSt7_Mem_fnIMNSP_10connectionINSN_6config15asio_tls_client16transport_configEEEFvSt8functionIFvRKSt10error_codeyEES11_yEESt10shared_ptrISX_ES13_St12_PlaceholderILi1EES19_ILi2EEEEEENS0_26is_continuation_if_runningEEEEEEESZ_yEES1E_EEE11do_completeEPvPNS0_18win_iocp_operationES11_y"
 "_ZN4asio6detail18completion_handlerINS0_17rewrapped_handlerINS0_7binder2INS_3ssl6detail5io_opINS_19basic_stream_socketINS_2ip3tcpENS_21stream_socket_serviceIS9_EEEENS5_7read_opINS_17mutable_buffers_1EEENS0_7read_opINS4_6streamISC_EESE_NS0_19transfer_at_least_tENS0_15wrapped_handlerINS_10io_service6strandEN14ws_websocketpp9transport4asio20custom_alloc_handlerISt5_BindIFSt7_Mem_fnIMNSP_10connectionINSN_6config15asio_tls_client16transport_configEEEFvSt8functionIFvRKSt10error_codeyEES11_yEESt10shared_ptrISX_ES13_St12_PlaceholderILi1EES19_ILi2EEEEEENS0_26is_continuation_if_runningEEEEEEESZ_yEES1E_EEE3ptr5resetEv"
 "_ZN4asio6detail18completion_handlerINS0_17rewrapped_handlerINS0_7binder2INS_3ssl6detail5io_opINS_19basic_stream_socketINS_2ip3tcpENS_21stream_socket_serviceIS9_EEEENS5_8write_opINS0_17consuming_buffersINS_12const_bufferESt6vectorISF_SaISF_EEEEEENS0_8write_opINS4_6streamISC_EESI_NS0_14transfer_all_tENS0_15wrapped_handlerINS_10io_service6strandEN14ws_websocketpp9transport4asio20custom_alloc_handlerISt5_BindIFSt7_Mem_fnIMNSU_10connectionINSS_6config15asio_tls_client16transport_configEEEFvSt8functionIFvRKSt10error_codeEES16_yEESt10shared_ptrIS12_ES18_St12_PlaceholderILi1EES1E_ILi2EEEEEENS0_26is_continuation_if_runningEEEEEEES14_yEES1J_EEE11do_completeEPvPNS0_18win_iocp_operationES16_y"
 "_ZN4asio6detail18completion_handlerINS0_17rewrapped_handlerINS0_7binder2INS_3ssl6detail5io_opINS_19basic_stream_socketINS_2ip3tcpENS_21stream_socket_serviceIS9_EEEENS5_8write_opINS0_17consuming_buffersINS_12const_bufferESt6vectorISF_SaISF_EEEEEENS0_8write_opINS4_6streamISC_EESI_NS0_14transfer_all_tENS0_15wrapped_handlerINS_10io_service6strandEN14ws_websocketpp9transport4asio20custom_alloc_handlerISt5_BindIFSt7_Mem_fnIMNSU_10connectionINSS_6config15asio_tls_client16transport_configEEEFvSt8functionIFvRKSt10error_codeEES16_yEESt10shared_ptrIS12_ES18_St12_PlaceholderILi1EES1E_ILi2EEEEEENS0_26is_continuation_if_runningEEEEEEES14_yEES1J_EEE3ptr5resetEv"
 "_ZN4asio6detail18completion_handlerINS0_17rewrapped_handlerINS0_7binder2INS0_15wrapped_handlerINS_10io_service6strandESt5_BindIFSt7_Mem_fnIMN14ws_websocketpp9transport4asio8endpointINS9_6config11asio_client16transport_configEEEFvSt10shared_ptrINSB_10connectionISF_EEESH_INS_20basic_waitable_timerINSt6chrono3_V212steady_clockENS_11wait_traitsISO_EENS_22waitable_timer_serviceISO_SQ_EEEEESt8functionIFvRKSt10error_codeEESY_NS_2ip23basic_resolver_iteratorINS11_3tcpEEEEEPSG_SK_SU_S10_St12_PlaceholderILi1EES19_ILi2EEEENS0_26is_continuation_if_runningEEESW_S14_EES1D_EEE11do_completeEPvPNS0_18win_iocp_operationESY_y"
 "_ZN4asio6detail18completion_handlerINS0_17rewrapped_handlerINS0_7binder2INS0_15wrapped_handlerINS_10io_service6strandESt5_BindIFSt7_Mem_fnIMN14ws_websocketpp9transport4asio8endpointINS9_6config11asio_client16transport_configEEEFvSt10shared_ptrINSB_10connectionISF_EEESH_INS_20basic_waitable_timerINSt6chrono3_V212steady_clockENS_11wait_traitsISO_EENS_22waitable_timer_serviceISO_SQ_EEEEESt8functionIFvRKSt10error_codeEESY_NS_2ip23basic_resolver_iteratorINS11_3tcpEEEEEPSG_SK_SU_S10_St12_PlaceholderILi1EES19_ILi2EEEENS0_26is_continuation_if_runningEEESW_S14_EES1D_EEE3ptr5resetEv"
 "_ZN4asio6detail18completion_handlerINS0_17rewrapped_handlerINS0_7binder2INS0_15wrapped_handlerINS_10io_service6strandESt5_BindIFSt7_Mem_fnIMN14ws_websocketpp9transport4asio8endpointINS9_6config15asio_tls_client16transport_configEEEFvSt10shared_ptrINSB_10connectionISF_EEESH_INS_20basic_waitable_timerINSt6chrono3_V212steady_clockENS_11wait_traitsISO_EENS_22waitable_timer_serviceISO_SQ_EEEEESt8functionIFvRKSt10error_codeEESY_NS_2ip23basic_resolver_iteratorINS11_3tcpEEEEEPSG_SK_SU_S10_St12_PlaceholderILi1EES19_ILi2EEEENS0_26is_continuation_if_runningEEESW_S14_EES1D_EEE11do_completeEPvPNS0_18win_iocp_operationESY_y"
 "_ZN4asio6detail18completion_handlerINS0_17rewrapped_handlerINS0_7binder2INS0_15wrapped_handlerINS_10io_service6strandESt5_BindIFSt7_Mem_fnIMN14ws_websocketpp9transport4asio8endpointINS9_6config15asio_tls_client16transport_configEEEFvSt10shared_ptrINSB_10connectionISF_EEESH_INS_20basic_waitable_timerINSt6chrono3_V212steady_clockENS_11wait_traitsISO_EENS_22waitable_timer_serviceISO_SQ_EEEEESt8functionIFvRKSt10error_codeEESY_NS_2ip23basic_resolver_iteratorINS11_3tcpEEEEEPSG_SK_SU_S10_St12_PlaceholderILi1EES19_ILi2EEEENS0_26is_continuation_if_runningEEESW_S14_EES1D_EEE3ptr5resetEv"
 "_ZN4asio6detail18completion_handlerINS0_17rewrapped_handlerINS0_7binder2INS0_26read_until_delim_string_opINS_19basic_stream_socketINS_2ip3tcpENS_21stream_socket_serviceIS7_EEEENS_19basic_streambuf_refISaIcEEENS0_15wrapped_handlerINS_10io_service6strandESt5_BindIFSt7_Mem_fnIMN14ws_websocketpp9transport4asio10connectionINSJ_6config11asio_client16transport_configEEEFvSt8functionIFvRKSt10error_codeEESU_yEESt10shared_ptrISQ_ESW_St12_PlaceholderILi1EES12_ILi2EEEENS0_26is_continuation_if_runningEEEEESS_yEES16_EEE11do_completeEPvPNS0_18win_iocp_operationESU_y"
 "_ZN4asio6detail18completion_handlerINS0_17rewrapped_handlerINS0_7binder2INS0_26read_until_delim_string_opINS_19basic_stream_socketINS_2ip3tcpENS_21stream_socket_serviceIS7_EEEENS_19basic_streambuf_refISaIcEEENS0_15wrapped_handlerINS_10io_service6strandESt5_BindIFSt7_Mem_fnIMN14ws_websocketpp9transport4asio10connectionINSJ_6config11asio_client16transport_configEEEFvSt8functionIFvRKSt10error_codeEESU_yEESt10shared_ptrISQ_ESW_St12_PlaceholderILi1EES12_ILi2EEEENS0_26is_continuation_if_runningEEEEESS_yEES16_EEE3ptr5resetEv"
 "_ZN4asio6detail18completion_handlerINS0_17rewrapped_handlerINS0_7binder2INS0_26read_until_delim_string_opINS_19basic_stream_socketINS_2ip3tcpENS_21stream_socket_serviceIS7_EEEENS_19basic_streambuf_refISaIcEEENS0_15wrapped_handlerINS_10io_service6strandESt5_BindIFSt7_Mem_fnIMN14ws_websocketpp9transport4asio10connectionINSJ_6config15asio_tls_client16transport_configEEEFvSt8functionIFvRKSt10error_codeEESU_yEESt10shared_ptrISQ_ESW_St12_PlaceholderILi1EES12_ILi2EEEENS0_26is_continuation_if_runningEEEEESS_yEES16_EEE11do_completeEPvPNS0_18win_iocp_operationESU_y"
 "_ZN4asio6detail18completion_handlerINS0_17rewrapped_handlerINS0_7binder2INS0_26read_until_delim_string_opINS_19basic_stream_socketINS_2ip3tcpENS_21stream_socket_serviceIS7_EEEENS_19basic_streambuf_refISaIcEEENS0_15wrapped_handlerINS_10io_service6strandESt5_BindIFSt7_Mem_fnIMN14ws_websocketpp9transport4asio10connectionINSJ_6config15asio_tls_client16transport_configEEEFvSt8functionIFvRKSt10error_codeEESU_yEESt10shared_ptrISQ_ESW_St12_PlaceholderILi1EES12_ILi2EEEENS0_26is_continuation_if_runningEEEEESS_yEES16_EEE3ptr5resetEv"
 "_ZN4asio6detail18completion_handlerINS0_17rewrapped_handlerINS0_7binder2INS0_7read_opINS_19basic_stream_socketINS_2ip3tcpENS_21stream_socket_serviceIS7_EEEENS_17mutable_buffers_1ENS0_19transfer_at_least_tENS0_15wrapped_handlerINS_10io_service6strandEN14ws_websocketpp9transport4asio20custom_alloc_handlerISt5_BindIFSt7_Mem_fnIMNSI_10connectionINSG_6config11asio_client16transport_configEEEFvSt8functionIFvRKSt10error_codeyEESU_yEESt10shared_ptrISQ_ESW_St12_PlaceholderILi1EES12_ILi2EEEEEENS0_26is_continuation_if_runningEEEEESS_yEES17_EEE11do_completeEPvPNS0_18win_iocp_operationESU_y"
 "_ZN4asio6detail18completion_handlerINS0_17rewrapped_handlerINS0_7binder2INS0_7read_opINS_19basic_stream_socketINS_2ip3tcpENS_21stream_socket_serviceIS7_EEEENS_17mutable_buffers_1ENS0_19transfer_at_least_tENS0_15wrapped_handlerINS_10io_service6strandEN14ws_websocketpp9transport4asio20custom_alloc_handlerISt5_BindIFSt7_Mem_fnIMNSI_10connectionINSG_6config11asio_client16transport_configEEEFvSt8functionIFvRKSt10error_codeyEESU_yEESt10shared_ptrISQ_ESW_St12_PlaceholderILi1EES12_ILi2EEEEEENS0_26is_continuation_if_runningEEEEESS_yEES17_EEE3ptr5resetEv"
 "_ZN4asio6detail18completion_handlerINS0_17rewrapped_handlerINS0_7binder2INS0_8write_opINS_19basic_stream_socketINS_2ip3tcpENS_21stream_socket_serviceIS7_EEEENS_17mutable_buffers_1ENS0_14transfer_all_tENS_3ssl6detail5io_opISA_NSE_11shutdown_opENS0_15wrapped_handlerINS_10io_service6strandESt8functionIFvRKSt10error_codeEENS0_26is_continuation_if_runningEEEEEEESL_yEESP_EEE11do_completeEPvPNS0_18win_iocp_operationESN_y"
 "_ZN4asio6detail18completion_handlerINS0_17rewrapped_handlerINS0_7binder2INS0_8write_opINS_19basic_stream_socketINS_2ip3tcpENS_21stream_socket_serviceIS7_EEEENS_17mutable_buffers_1ENS0_14transfer_all_tENS_3ssl6detail5io_opISA_NSE_11shutdown_opENS0_15wrapped_handlerINS_10io_service6strandESt8functionIFvRKSt10error_codeEENS0_26is_continuation_if_runningEEEEEEESL_yEESP_EEE3ptr5resetEv"
 "_ZN4asio6detail18completion_handlerINS0_17rewrapped_handlerINS0_7binder2INS0_8write_opINS_19basic_stream_socketINS_2ip3tcpENS_21stream_socket_serviceIS7_EEEENS_17mutable_buffers_1ENS0_14transfer_all_tENS_3ssl6detail5io_opISA_NSE_12handshake_opENS0_15wrapped_handlerINS_10io_service6strandESt5_BindIFSt7_Mem_fnIMN14ws_websocketpp9transport4asio10tls_socket10connectionEFvSt8functionIFvRKSt10error_codeEESU_EESt10shared_ptrISQ_ESW_St12_PlaceholderILi1EEEENS0_26is_continuation_if_runningEEEEEEESS_yEES15_EEE11do_completeEPvPNS0_18win_iocp_operationESU_y"
 "_ZN4asio6detail18completion_handlerINS0_17rewrapped_handlerINS0_7binder2INS0_8write_opINS_19basic_stream_socketINS_2ip3tcpENS_21stream_socket_serviceIS7_EEEENS_17mutable_buffers_1ENS0_14transfer_all_tENS_3ssl6detail5io_opISA_NSE_12handshake_opENS0_15wrapped_handlerINS_10io_service6strandESt5_BindIFSt7_Mem_fnIMN14ws_websocketpp9transport4asio10tls_socket10connectionEFvSt8functionIFvRKSt10error_codeEESU_EESt10shared_ptrISQ_ESW_St12_PlaceholderILi1EEEENS0_26is_continuation_if_runningEEEEEEESS_yEES15_EEE3ptr5resetEv"
 "_ZN4asio6detail18completion_handlerINS0_17rewrapped_handlerINS0_7binder2INS0_8write_opINS_19basic_stream_socketINS_2ip3tcpENS_21stream_socket_serviceIS7_EEEENS_17mutable_buffers_1ENS0_14transfer_all_tENS_3ssl6detail5io_opISA_NSE_7read_opISB_EENS0_7read_opINSD_6streamISA_EESB_NS0_19transfer_at_least_tENS0_15wrapped_handlerINS_10io_service6strandEN14ws_websocketpp9transport4asio20custom_alloc_handlerISt5_BindIFSt7_Mem_fnIMNSR_10connectionINSP_6config15asio_tls_client16transport_configEEEFvSt8functionIFvRKSt10error_codeyEES13_yEESt10shared_ptrISZ_ES15_St12_PlaceholderILi1EES1B_ILi2EEEEEENS0_26is_continuation_if_runningEEEEEEEEES11_yEES1G_EEE11do_completeEPvPNS0_18win_iocp_operationES13_y"
 "_ZN4asio6detail18completion_handlerINS0_17rewrapped_handlerINS0_7binder2INS0_8write_opINS_19basic_stream_socketINS_2ip3tcpENS_21stream_socket_serviceIS7_EEEENS_17mutable_buffers_1ENS0_14transfer_all_tENS_3ssl6detail5io_opISA_NSE_7read_opISB_EENS0_7read_opINSD_6streamISA_EESB_NS0_19transfer_at_least_tENS0_15wrapped_handlerINS_10io_service6strandEN14ws_websocketpp9transport4asio20custom_alloc_handlerISt5_BindIFSt7_Mem_fnIMNSR_10connectionINSP_6config15asio_tls_client16transport_configEEEFvSt8functionIFvRKSt10error_codeyEES13_yEESt10shared_ptrISZ_ES15_St12_PlaceholderILi1EES1B_ILi2EEEEEENS0_26is_continuation_if_runningEEEEEEEEES11_yEES1G_EEE3ptr5resetEv"
 "_ZN4asio6detail18completion_handlerINS0_17rewrapped_handlerINS0_7binder2INS0_8write_opINS_19basic_stream_socketINS_2ip3tcpENS_21stream_socket_serviceIS7_EEEENS_17mutable_buffers_1ENS0_14transfer_all_tENS_3ssl6detail5io_opISA_NSE_8write_opINS0_17consuming_buffersINS_12const_bufferESt6vectorISI_SaISI_EEEEEENS4_INSD_6streamISA_EESL_SC_NS0_15wrapped_handlerINS_10io_service6strandEN14ws_websocketpp9transport4asio20custom_alloc_handlerISt5_BindIFSt7_Mem_fnIMNSV_10connectionINST_6config15asio_tls_client16transport_configEEEFvSt8functionIFvRKSt10error_codeEES17_yEESt10shared_ptrIS13_ES19_St12_PlaceholderILi1EES1F_ILi2EEEEEENS0_26is_continuation_if_runningEEEEEEEEES15_yEES1K_EEE11do_completeEPvPNS0_18win_iocp_operationES17_y"
 "_ZN4asio6detail18completion_handlerINS0_17rewrapped_handlerINS0_7binder2INS0_8write_opINS_19basic_stream_socketINS_2ip3tcpENS_21stream_socket_serviceIS7_EEEENS_17mutable_buffers_1ENS0_14transfer_all_tENS_3ssl6detail5io_opISA_NSE_8write_opINS0_17consuming_buffersINS_12const_bufferESt6vectorISI_SaISI_EEEEEENS4_INSD_6streamISA_EESL_SC_NS0_15wrapped_handlerINS_10io_service6strandEN14ws_websocketpp9transport4asio20custom_alloc_handlerISt5_BindIFSt7_Mem_fnIMNSV_10connectionINST_6config15asio_tls_client16transport_configEEEFvSt8functionIFvRKSt10error_codeEES17_yEESt10shared_ptrIS13_ES19_St12_PlaceholderILi1EES1F_ILi2EEEEEENS0_26is_continuation_if_runningEEEEEEEEES15_yEES1K_EEE3ptr5resetEv"
 "_ZN4asio6detail18completion_handlerINS0_17rewrapped_handlerINS0_7binder2INS0_8write_opINS_19basic_stream_socketINS_2ip3tcpENS_21stream_socket_serviceIS7_EEEESt6vectorINS_12const_bufferESaISC_EENS0_14transfer_all_tENS0_15wrapped_handlerINS_10io_service6strandEN14ws_websocketpp9transport4asio20custom_alloc_handlerISt5_BindIFSt7_Mem_fnIMNSL_10connectionINSJ_6config11asio_client16transport_configEEEFvSt8functionIFvRKSt10error_codeEESX_yEESt10shared_ptrIST_ESZ_St12_PlaceholderILi1EES15_ILi2EEEEEENS0_26is_continuation_if_runningEEEEESV_yEES1A_EEE11do_completeEPvPNS0_18win_iocp_operationESX_y"
 "_ZN4asio6detail18completion_handlerINS0_17rewrapped_handlerINS0_7binder2INS0_8write_opINS_19basic_stream_socketINS_2ip3tcpENS_21stream_socket_serviceIS7_EEEESt6vectorINS_12const_bufferESaISC_EENS0_14transfer_all_tENS0_15wrapped_handlerINS_10io_service6strandEN14ws_websocketpp9transport4asio20custom_alloc_handlerISt5_BindIFSt7_Mem_fnIMNSL_10connectionINSJ_6config11asio_client16transport_configEEEFvSt8functionIFvRKSt10error_codeEESX_yEESt10shared_ptrIST_ESZ_St12_PlaceholderILi1EES15_ILi2EEEEEENS0_26is_continuation_if_runningEEEEESV_yEES1A_EEE3ptr5resetEv"
 "_ZN4asio6detail18completion_handlerINS0_17rewrapped_handlerINS0_7binder2INS0_8write_opINS_19basic_stream_socketINS_2ip3tcpENS_21stream_socket_serviceIS7_EEEESt6vectorINS_12const_bufferESaISC_EENS0_14transfer_all_tENS0_15wrapped_handlerINS_10io_service6strandESt5_BindIFSt7_Mem_fnIMN14ws_websocketpp9transport4asio10connectionINSL_6config11asio_client16transport_configEEEFvSt8functionIFvRKSt10error_codeEESW_EESt10shared_ptrISS_ESY_St12_PlaceholderILi1EEEENS0_26is_continuation_if_runningEEEEESU_yEES17_EEE11do_completeEPvPNS0_18win_iocp_operationESW_y"
 "_ZN4asio6detail18completion_handlerINS0_17rewrapped_handlerINS0_7binder2INS0_8write_opINS_19basic_stream_socketINS_2ip3tcpENS_21stream_socket_serviceIS7_EEEESt6vectorINS_12const_bufferESaISC_EENS0_14transfer_all_tENS0_15wrapped_handlerINS_10io_service6strandESt5_BindIFSt7_Mem_fnIMN14ws_websocketpp9transport4asio10connectionINSL_6config11asio_client16transport_configEEEFvSt8functionIFvRKSt10error_codeEESW_EESt10shared_ptrISS_ESY_St12_PlaceholderILi1EEEENS0_26is_continuation_if_runningEEEEESU_yEES17_EEE3ptr5resetEv"
 "_ZN4asio6detail18completion_handlerINS0_17rewrapped_handlerINS0_7binder2INS0_8write_opINS_19basic_stream_socketINS_2ip3tcpENS_21stream_socket_serviceIS7_EEEESt6vectorINS_12const_bufferESaISC_EENS0_14transfer_all_tENS0_15wrapped_handlerINS_10io_service6strandESt5_BindIFSt7_Mem_fnIMN14ws_websocketpp9transport4asio10connectionINSL_6config15asio_tls_client16transport_configEEEFvSt8functionIFvRKSt10error_codeEESW_EESt10shared_ptrISS_ESY_St12_PlaceholderILi1EEEENS0_26is_continuation_if_runningEEEEESU_yEES17_EEE11do_completeEPvPNS0_18win_iocp_operationESW_y"
 "_ZN4asio6detail18completion_handlerINS0_17rewrapped_handlerINS0_7binder2INS0_8write_opINS_19basic_stream_socketINS_2ip3tcpENS_21stream_socket_serviceIS7_EEEESt6vectorINS_12const_bufferESaISC_EENS0_14transfer_all_tENS0_15wrapped_handlerINS_10io_service6strandESt5_BindIFSt7_Mem_fnIMN14ws_websocketpp9transport4asio10connectionINSL_6config15asio_tls_client16transport_configEEEFvSt8functionIFvRKSt10error_codeEESW_EESt10shared_ptrISS_ESY_St12_PlaceholderILi1EEEENS0_26is_continuation_if_runningEEEEESU_yEES17_EEE3ptr5resetEv"
 "_ZN4asio6detail18completion_handlerINS0_7binder1IRSt5_BindIFSt7_Mem_fnIMN14ws_websocketpp9transport4asio10connectionINS5_6config11asio_client16transport_configEEEFvSt10shared_ptrINS_20basic_waitable_timerINSt6chrono3_V212steady_clockENS_11wait_traitsISH_EENS_22waitable_timer_serviceISH_SJ_EEEEESt8functionIFvRKSt10error_codeEESR_EESD_ISC_ESN_ST_St12_PlaceholderILi1EEEESP_EEE11do_completeEPvPNS0_18win_iocp_operationESR_y"
 "_ZN4asio6detail18completion_handlerINS0_7binder1IRSt5_BindIFSt7_Mem_fnIMN14ws_websocketpp9transport4asio10connectionINS5_6config11asio_client16transport_configEEEFvSt10shared_ptrINS_20basic_waitable_timerINSt6chrono3_V212steady_clockENS_11wait_traitsISH_EENS_22waitable_timer_serviceISH_SJ_EEEEESt8functionIFvRKSt10error_codeEESR_EESD_ISC_ESN_ST_St12_PlaceholderILi1EEEESP_EEE3ptr5resetEv"
 "_ZN4asio6detail18completion_handlerINS0_7binder1IRSt5_BindIFSt7_Mem_fnIMN14ws_websocketpp9transport4asio10connectionINS5_6config15asio_tls_client16transport_configEEEFvSt10shared_ptrINS_20basic_waitable_timerINSt6chrono3_V212steady_clockENS_11wait_traitsISH_EENS_22waitable_timer_serviceISH_SJ_EEEEESt8functionIFvRKSt10error_codeEESR_EESD_ISC_ESN_ST_St12_PlaceholderILi1EEEESP_EEE11do_completeEPvPNS0_18win_iocp_operationESR_y"
 "_ZN4asio6detail18completion_handlerINS0_7binder1IRSt5_BindIFSt7_Mem_fnIMN14ws_websocketpp9transport4asio10connectionINS5_6config15asio_tls_client16transport_configEEEFvSt10shared_ptrINS_20basic_waitable_timerINSt6chrono3_V212steady_clockENS_11wait_traitsISH_EENS_22waitable_timer_serviceISH_SJ_EEEEESt8functionIFvRKSt10error_codeEESR_EESD_ISC_ESN_ST_St12_PlaceholderILi1EEEESP_EEE3ptr5resetEv"
 "_ZN4asio6detail18completion_handlerINS0_7binder1IRSt5_BindIFSt7_Mem_fnIMN14ws_websocketpp9transport4asio10tls_socket10connectionEFvSt8functionIFvRKSt10error_codeEESD_EESt10shared_ptrIS9_ESF_St12_PlaceholderILi1EEEESB_EEE11do_completeEPvPNS0_18win_iocp_operationESD_y"
 "_ZN4asio6detail18completion_handlerINS0_7binder1IRSt5_BindIFSt7_Mem_fnIMN14ws_websocketpp9transport4asio10tls_socket10connectionEFvSt8functionIFvRKSt10error_codeEESD_EESt10shared_ptrIS9_ESF_St12_PlaceholderILi1EEEESB_EEE3ptr5resetEv"
 "_ZN4asio6detail18completion_handlerINS0_7binder1IRSt8functionIFvRKSt10error_codeEES4_EEE11do_completeEPvPNS0_18win_iocp_operationES6_y"
 "_ZN4asio6detail18completion_handlerINS0_7binder1IRSt8functionIFvRKSt10error_codeEES4_EEE3ptr5resetEv"
 "_ZN4asio6detail18completion_handlerINS0_7binder2IRN14ws_websocketpp9transport4asio20custom_alloc_handlerISt5_BindIFSt7_Mem_fnIMNS5_10connectionINS3_6config11asio_client16transport_configEEEFvSt8functionIFvRKSt10error_codeEESH_yEESt10shared_ptrISD_ESJ_St12_PlaceholderILi1EESP_ILi2EEEEEESF_yEEE11do_completeEPvPNS0_18win_iocp_operationESH_y"
 "_ZN4asio6detail18completion_handlerINS0_7binder2IRN14ws_websocketpp9transport4asio20custom_alloc_handlerISt5_BindIFSt7_Mem_fnIMNS5_10connectionINS3_6config11asio_client16transport_configEEEFvSt8functionIFvRKSt10error_codeEESH_yEESt10shared_ptrISD_ESJ_St12_PlaceholderILi1EESP_ILi2EEEEEESF_yEEE3ptr5resetEv"
 "_ZN4asio6detail18completion_handlerINS0_7binder2IRN14ws_websocketpp9transport4asio20custom_alloc_handlerISt5_BindIFSt7_Mem_fnIMNS5_10connectionINS3_6config11asio_client16transport_configEEEFvSt8functionIFvRKSt10error_codeyEESH_yEESt10shared_ptrISD_ESJ_St12_PlaceholderILi1EESP_ILi2EEEEEESF_yEEE11do_completeEPvPNS0_18win_iocp_operationESH_y"
 "_ZN4asio6detail18completion_handlerINS0_7binder2IRN14ws_websocketpp9transport4asio20custom_alloc_handlerISt5_BindIFSt7_Mem_fnIMNS5_10connectionINS3_6config11asio_client16transport_configEEEFvSt8functionIFvRKSt10error_codeyEESH_yEESt10shared_ptrISD_ESJ_St12_PlaceholderILi1EESP_ILi2EEEEEESF_yEEE3ptr5resetEv"
 "_ZN4asio6detail18completion_handlerINS0_7binder2IRN14ws_websocketpp9transport4asio20custom_alloc_handlerISt5_BindIFSt7_Mem_fnIMNS5_10connectionINS3_6config15asio_tls_client16transport_configEEEFvSt8functionIFvRKSt10error_codeEESH_yEESt10shared_ptrISD_ESJ_St12_PlaceholderILi1EESP_ILi2EEEEEESF_yEEE11do_completeEPvPNS0_18win_iocp_operationESH_y"
 "_ZN4asio6detail18completion_handlerINS0_7binder2IRN14ws_websocketpp9transport4asio20custom_alloc_handlerISt5_BindIFSt7_Mem_fnIMNS5_10connectionINS3_6config15asio_tls_client16transport_configEEEFvSt8functionIFvRKSt10error_codeEESH_yEESt10shared_ptrISD_ESJ_St12_PlaceholderILi1EESP_ILi2EEEEEESF_yEEE3ptr5resetEv"
 "_ZN4asio6detail18completion_handlerINS0_7binder2IRN14ws_websocketpp9transport4asio20custom_alloc_handlerISt5_BindIFSt7_Mem_fnIMNS5_10connectionINS3_6config15asio_tls_client16transport_configEEEFvSt8functionIFvRKSt10error_codeyEESH_yEESt10shared_ptrISD_ESJ_St12_PlaceholderILi1EESP_ILi2EEEEEESF_yEEE11do_completeEPvPNS0_18win_iocp_operationESH_y"
 "_ZN4asio6detail18completion_handlerINS0_7binder2IRN14ws_websocketpp9transport4asio20custom_alloc_handlerISt5_BindIFSt7_Mem_fnIMNS5_10connectionINS3_6config15asio_tls_client16transport_configEEEFvSt8functionIFvRKSt10error_codeyEESH_yEESt10shared_ptrISD_ESJ_St12_PlaceholderILi1EESP_ILi2EEEEEESF_yEEE3ptr5resetEv"
 "_ZN4asio6detail18completion_handlerINS0_7binder2IRSt5_BindIFSt7_Mem_fnIMN14ws_websocketpp9transport4asio10connectionINS5_6config11asio_client16transport_configEEEFvSt8functionIFvRKSt10error_codeEESG_EESt10shared_ptrISC_ESI_St12_PlaceholderILi1EEEESE_yEEE11do_completeEPvPNS0_18win_iocp_operationESG_y"
 "_ZN4asio6detail18completion_handlerINS0_7binder2IRSt5_BindIFSt7_Mem_fnIMN14ws_websocketpp9transport4asio10connectionINS5_6config11asio_client16transport_configEEEFvSt8functionIFvRKSt10error_codeEESG_EESt10shared_ptrISC_ESI_St12_PlaceholderILi1EEEESE_yEEE3ptr5resetEv"
 "_ZN4asio6detail18completion_handlerINS0_7binder2IRSt5_BindIFSt7_Mem_fnIMN14ws_websocketpp9transport4asio10connectionINS5_6config11asio_client16transport_configEEEFvSt8functionIFvRKSt10error_codeEESG_yEESt10shared_ptrISC_ESI_St12_PlaceholderILi1EESO_ILi2EEEESE_yEEE11do_completeEPvPNS0_18win_iocp_operationESG_y"
 "_ZN4asio6detail18completion_handlerINS0_7binder2IRSt5_BindIFSt7_Mem_fnIMN14ws_websocketpp9transport4asio10connectionINS5_6config11asio_client16transport_configEEEFvSt8functionIFvRKSt10error_codeEESG_yEESt10shared_ptrISC_ESI_St12_PlaceholderILi1EESO_ILi2EEEESE_yEEE3ptr5resetEv"
 "_ZN4asio6detail18completion_handlerINS0_7binder2IRSt5_BindIFSt7_Mem_fnIMN14ws_websocketpp9transport4asio10connectionINS5_6config15asio_tls_client16transport_configEEEFvSt8functionIFvRKSt10error_codeEESG_EESt10shared_ptrISC_ESI_St12_PlaceholderILi1EEEESE_yEEE11do_completeEPvPNS0_18win_iocp_operationESG_y"
 "_ZN4asio6detail18completion_handlerINS0_7binder2IRSt5_BindIFSt7_Mem_fnIMN14ws_websocketpp9transport4asio10connectionINS5_6config15asio_tls_client16transport_configEEEFvSt8functionIFvRKSt10error_codeEESG_EESt10shared_ptrISC_ESI_St12_PlaceholderILi1EEEESE_yEEE3ptr5resetEv"
 "_ZN4asio6detail18completion_handlerINS0_7binder2IRSt5_BindIFSt7_Mem_fnIMN14ws_websocketpp9transport4asio10connectionINS5_6config15asio_tls_client16transport_configEEEFvSt8functionIFvRKSt10error_codeEESG_yEESt10shared_ptrISC_ESI_St12_PlaceholderILi1EESO_ILi2EEEESE_yEEE11do_completeEPvPNS0_18win_iocp_operationESG_y"
 "_ZN4asio6detail18completion_handlerINS0_7binder2IRSt5_BindIFSt7_Mem_fnIMN14ws_websocketpp9transport4asio10connectionINS5_6config15asio_tls_client16transport_configEEEFvSt8functionIFvRKSt10error_codeEESG_yEESt10shared_ptrISC_ESI_St12_PlaceholderILi1EESO_ILi2EEEESE_yEEE3ptr5resetEv"
 "_ZN4asio6detail18completion_handlerINS0_7binder2IRSt5_BindIFSt7_Mem_fnIMN14ws_websocketpp9transport4asio8endpointINS5_6config11asio_client16transport_configEEEFvSt10shared_ptrINS7_10connectionISB_EEESD_INS_20basic_waitable_timerINSt6chrono3_V212steady_clockENS_11wait_traitsISK_EENS_22waitable_timer_serviceISK_SM_EEEEESt8functionIFvRKSt10error_codeEESU_EEPSC_SG_SQ_SW_St12_PlaceholderILi1EEEESS_NS_2ip23basic_resolver_iteratorINS16_3tcpEEEEEE11do_completeEPvPNS0_18win_iocp_operationESU_y"
 "_ZN4asio6detail18completion_handlerINS0_7binder2IRSt5_BindIFSt7_Mem_fnIMN14ws_websocketpp9transport4asio8endpointINS5_6config11asio_client16transport_configEEEFvSt10shared_ptrINS7_10connectionISB_EEESD_INS_20basic_waitable_timerINSt6chrono3_V212steady_clockENS_11wait_traitsISK_EENS_22waitable_timer_serviceISK_SM_EEEEESt8functionIFvRKSt10error_codeEESU_EEPSC_SG_SQ_SW_St12_PlaceholderILi1EEEESS_NS_2ip23basic_resolver_iteratorINS16_3tcpEEEEEE3ptr5resetEv"
 "_ZN4asio6detail18completion_handlerINS0_7binder2IRSt5_BindIFSt7_Mem_fnIMN14ws_websocketpp9transport4asio8endpointINS5_6config11asio_client16transport_configEEEFvSt10shared_ptrINS7_10connectionISB_EEESD_INS_20basic_waitable_timerINSt6chrono3_V212steady_clockENS_11wait_traitsISK_EENS_22waitable_timer_serviceISK_SM_EEEEESt8functionIFvRKSt10error_codeEESU_NS_2ip23basic_resolver_iteratorINSX_3tcpEEEEEPSC_SG_SQ_SW_St12_PlaceholderILi1EES15_ILi2EEEESS_S10_EEE11do_completeEPvPNS0_18win_iocp_operationESU_y"
 "_ZN4asio6detail18completion_handlerINS0_7binder2IRSt5_BindIFSt7_Mem_fnIMN14ws_websocketpp9transport4asio8endpointINS5_6config11asio_client16transport_configEEEFvSt10shared_ptrINS7_10connectionISB_EEESD_INS_20basic_waitable_timerINSt6chrono3_V212steady_clockENS_11wait_traitsISK_EENS_22waitable_timer_serviceISK_SM_EEEEESt8functionIFvRKSt10error_codeEESU_NS_2ip23basic_resolver_iteratorINSX_3tcpEEEEEPSC_SG_SQ_SW_St12_PlaceholderILi1EES15_ILi2EEEESS_S10_EEE3ptr5resetEv"
 "_ZN4asio6detail18completion_handlerINS0_7binder2IRSt5_BindIFSt7_Mem_fnIMN14ws_websocketpp9transport4asio8endpointINS5_6config15asio_tls_client16transport_configEEEFvSt10shared_ptrINS7_10connectionISB_EEESD_INS_20basic_waitable_timerINSt6chrono3_V212steady_clockENS_11wait_traitsISK_EENS_22waitable_timer_serviceISK_SM_EEEEESt8functionIFvRKSt10error_codeEESU_EEPSC_SG_SQ_SW_St12_PlaceholderILi1EEEESS_NS_2ip23basic_resolver_iteratorINS16_3tcpEEEEEE11do_completeEPvPNS0_18win_iocp_operationESU_y"
 "_ZN4asio6detail18completion_handlerINS0_7binder2IRSt5_BindIFSt7_Mem_fnIMN14ws_websocketpp9transport4asio8endpointINS5_6config15asio_tls_client16transport_configEEEFvSt10shared_ptrINS7_10connectionISB_EEESD_INS_20basic_waitable_timerINSt6chrono3_V212steady_clockENS_11wait_traitsISK_EENS_22waitable_timer_serviceISK_SM_EEEEESt8functionIFvRKSt10error_codeEESU_EEPSC_SG_SQ_SW_St12_PlaceholderILi1EEEESS_NS_2ip23basic_resolver_iteratorINS16_3tcpEEEEEE3ptr5resetEv"
 "_ZN4asio6detail18completion_handlerINS0_7binder2IRSt5_BindIFSt7_Mem_fnIMN14ws_websocketpp9transport4asio8endpointINS5_6config15asio_tls_client16transport_configEEEFvSt10shared_ptrINS7_10connectionISB_EEESD_INS_20basic_waitable_timerINSt6chrono3_V212steady_clockENS_11wait_traitsISK_EENS_22waitable_timer_serviceISK_SM_EEEEESt8functionIFvRKSt10error_codeEESU_NS_2ip23basic_resolver_iteratorINSX_3tcpEEEEEPSC_SG_SQ_SW_St12_PlaceholderILi1EES15_ILi2EEEESS_S10_EEE11do_completeEPvPNS0_18win_iocp_operationESU_y"
 "_ZN4asio6detail18completion_handlerINS0_7binder2IRSt5_BindIFSt7_Mem_fnIMN14ws_websocketpp9transport4asio8endpointINS5_6config15asio_tls_client16transport_configEEEFvSt10shared_ptrINS7_10connectionISB_EEESD_INS_20basic_waitable_timerINSt6chrono3_V212steady_clockENS_11wait_traitsISK_EENS_22waitable_timer_serviceISK_SM_EEEEESt8functionIFvRKSt10error_codeEESU_NS_2ip23basic_resolver_iteratorINSX_3tcpEEEEEPSC_SG_SQ_SW_St12_PlaceholderILi1EES15_ILi2EEEESS_S10_EEE3ptr5resetEv"
 "_ZN4asio6detail18completion_handlerISt8functionIFvvEEE11do_completeEPvPNS0_18win_iocp_operationERKSt10error_codey"
 "_ZN4asio6detail18completion_handlerISt8functionIFvvEEE3ptr5resetEv"
 "_ZN4asio6detail19win_iocp_io_service12cancel_timerINS0_18chrono_time_traitsINSt6chrono3_V212steady_clockENS_11wait_traitsIS6_EEEEEEyRNS0_11timer_queueIT_EERNSC_14per_timer_dataEy"
 "_ZN4asio6detail19win_iocp_io_service13work_finishedEv"
 "_ZN4asio6detail19win_iocp_io_service14schedule_timerINS0_18chrono_time_traitsINSt6chrono3_V212steady_clockENS_11wait_traitsIS6_EEEEEEvRNS0_11timer_queueIT_EERKNSB_9time_typeERNSC_14per_timer_dataEPNS0_7wait_opE"
 "_ZN4asio6detail19win_iocp_io_service14update_timeoutEv"
 "_ZN4asio6detail19win_iocp_io_service16shutdown_serviceEv"
 "_ZN4asio6detail19win_iocp_io_service24post_deferred_completionEPNS0_18win_iocp_operationE"
 "_ZN4asio6detail19win_iocp_io_service25post_deferred_completionsERNS0_8op_queueINS0_18win_iocp_operationEEE"
 "_ZN4asio6detail19win_iocp_io_service4stopEv"
 "_ZN4asio6detail19win_iocp_io_service6do_oneEbRSt10error_code"
 "_ZN4asio6detail19win_iocp_io_serviceC1ERNS_17execution_contextEy"
 "_ZN4asio6detail19win_iocp_io_serviceD0Ev"
 "_ZN4asio6detail19win_iocp_io_serviceD1Ev"
 "_ZN4asio6detail19win_thread_functionEPv"
 "_ZN4asio6detail22deadline_timer_serviceINS0_18chrono_time_traitsINSt6chrono3_V212steady_clockENS_11wait_traitsIS5_EEEEE10async_waitINS_3ssl6detail5io_opINS_19basic_stream_socketINS_2ip3tcpENS_21stream_socket_serviceISG_EEEENSC_11shutdown_opENS0_15wrapped_handlerINS_10io_service6strandESt8functionIFvRKSt10error_codeEENS0_26is_continuation_if_runningEEEEEEEvRNS9_19implementation_typeERT_"
 "_ZN4asio6detail22deadline_timer_serviceINS0_18chrono_time_traitsINSt6chrono3_V212steady_clockENS_11wait_traitsIS5_EEEEE10async_waitINS_3ssl6detail5io_opINS_19basic_stream_socketINS_2ip3tcpENS_21stream_socket_serviceISG_EEEENSC_11shutdown_opESt8functionIFvRKSt10error_codeEEEEEEvRNS9_19implementation_typeERT_"
 "_ZN4asio6detail22deadline_timer_serviceINS0_18chrono_time_traitsINSt6chrono3_V212steady_clockENS_11wait_traitsIS5_EEEEE10async_waitINS_3ssl6detail5io_opINS_19basic_stream_socketINS_2ip3tcpENS_21stream_socket_serviceISG_EEEENSC_12handshake_opENS0_15wrapped_handlerINS_10io_service6strandESt5_BindIFSt7_Mem_fnIMN14ws_websocketpp9transport4asio10tls_socket10connectionEFvSt8functionIFvRKSt10error_codeEESY_EESt10shared_ptrISU_ES10_St12_PlaceholderILi1EEEENS0_26is_continuation_if_runningEEEEEEEvRNS9_19implementation_typeERT_"
 "_ZN4asio6detail22deadline_timer_serviceINS0_18chrono_time_traitsINSt6chrono3_V212steady_clockENS_11wait_traitsIS5_EEEEE10async_waitINS_3ssl6detail5io_opINS_19basic_stream_socketINS_2ip3tcpENS_21stream_socket_serviceISG_EEEENSC_12handshake_opESt5_BindIFSt7_Mem_fnIMN14ws_websocketpp9transport4asio10tls_socket10connectionEFvSt8functionIFvRKSt10error_codeEESV_EESt10shared_ptrISR_ESX_St12_PlaceholderILi1EEEEEEEEvRNS9_19implementation_typeERT_"
 "_ZN4asio6detail22deadline_timer_serviceINS0_18chrono_time_traitsINSt6chrono3_V212steady_clockENS_11wait_traitsIS5_EEEEE10async_waitINS_3ssl6detail5io_opINS_19basic_stream_socketINS_2ip3tcpENS_21stream_socket_serviceISG_EEEENSC_7read_opINS_17mutable_buffers_1EEENS0_7read_opINSB_6streamISJ_EESL_NS0_19transfer_at_least_tENS0_15wrapped_handlerINS_10io_service6strandEN14ws_websocketpp9transport4asio20custom_alloc_handlerISt5_BindIFSt7_Mem_fnIMNSW_10connectionINSU_6config15asio_tls_client16transport_configEEEFvSt8functionIFvRKSt10error_codeyEES18_yEESt10shared_ptrIS14_ES1A_St12_PlaceholderILi1EES1G_ILi2EEEEEENS0_26is_continuation_if_runningEEEEEEEEEvRNS9_19implementation_typeERT_"
 "_ZN4asio6detail22deadline_timer_serviceINS0_18chrono_time_traitsINSt6chrono3_V212steady_clockENS_11wait_traitsIS5_EEEEE10async_waitINS_3ssl6detail5io_opINS_19basic_stream_socketINS_2ip3tcpENS_21stream_socket_serviceISG_EEEENSC_8write_opINS0_17consuming_buffersINS_12const_bufferESt6vectorISM_SaISM_EEEEEENS0_8write_opINSB_6streamISJ_EESP_NS0_14transfer_all_tENS0_15wrapped_handlerINS_10io_service6strandEN14ws_websocketpp9transport4asio20custom_alloc_handlerISt5_BindIFSt7_Mem_fnIMNS11_10connectionINSZ_6config15asio_tls_client16transport_configEEEFvSt8functionIFvRKSt10error_codeEES1D_yEESt10shared_ptrIS19_ES1F_St12_PlaceholderILi1EES1L_ILi2EEEEEENS0_26is_continuation_if_runningEEEEEEEEEvRNS9_19implementation_typeERT_"
 "_ZN4asio6detail23win_iocp_socket_recv_opINS_17mutable_buffers_1ENS_3ssl6detail5io_opINS_19basic_stream_socketINS_2ip3tcpENS_21stream_socket_serviceIS8_EEEENS4_11shutdown_opENS0_15wrapped_handlerINS_10io_service6strandESt8functionIFvRKSt10error_codeEENS0_26is_continuation_if_runningEEEEEE11do_completeEPvPNS0_18win_iocp_operationESJ_y"
 "_ZN4asio6detail23win_iocp_socket_recv_opINS_17mutable_buffers_1ENS_3ssl6detail5io_opINS_19basic_stream_socketINS_2ip3tcpENS_21stream_socket_serviceIS8_EEEENS4_11shutdown_opENS0_15wrapped_handlerINS_10io_service6strandESt8functionIFvRKSt10error_codeEENS0_26is_continuation_if_runningEEEEEE3ptr5resetEv"
 "_ZN4asio6detail23win_iocp_socket_recv_opINS_17mutable_buffers_1ENS_3ssl6detail5io_opINS_19basic_stream_socketINS_2ip3tcpENS_21stream_socket_serviceIS8_EEEENS4_11shutdown_opESt8functionIFvRKSt10error_codeEEEEE11do_completeEPvPNS0_18win_iocp_operationESG_y"
 "_ZN4asio6detail23win_iocp_socket_recv_opINS_17mutable_buffers_1ENS_3ssl6detail5io_opINS_19basic_stream_socketINS_2ip3tcpENS_21stream_socket_serviceIS8_EEEENS4_11shutdown_opESt8functionIFvRKSt10error_codeEEEEE3ptr5resetEv"
 "_ZN4asio6detail23win_iocp_socket_recv_opINS_17mutable_buffers_1ENS_3ssl6detail5io_opINS_19basic_stream_socketINS_2ip3tcpENS_21stream_socket_serviceIS8_EEEENS4_12handshake_opENS0_15wrapped_handlerINS_10io_service6strandESt5_BindIFSt7_Mem_fnIMN14ws_websocketpp9transport4asio10tls_socket10connectionEFvSt8functionIFvRKSt10error_codeEESQ_EESt10shared_ptrISM_ESS_St12_PlaceholderILi1EEEENS0_26is_continuation_if_runningEEEEEE11do_completeEPvPNS0_18win_iocp_operationESQ_y"
 "_ZN4asio6detail23win_iocp_socket_recv_opINS_17mutable_buffers_1ENS_3ssl6detail5io_opINS_19basic_stream_socketINS_2ip3tcpENS_21stream_socket_serviceIS8_EEEENS4_12handshake_opENS0_15wrapped_handlerINS_10io_service6strandESt5_BindIFSt7_Mem_fnIMN14ws_websocketpp9transport4asio10tls_socket10connectionEFvSt8functionIFvRKSt10error_codeEESQ_EESt10shared_ptrISM_ESS_St12_PlaceholderILi1EEEENS0_26is_continuation_if_runningEEEEEE3ptr5resetEv"
 "_ZN4asio6detail23win_iocp_socket_recv_opINS_17mutable_buffers_1ENS_3ssl6detail5io_opINS_19basic_stream_socketINS_2ip3tcpENS_21stream_socket_serviceIS8_EEEENS4_12handshake_opESt5_BindIFSt7_Mem_fnIMN14ws_websocketpp9transport4asio10tls_socket10connectionEFvSt8functionIFvRKSt10error_codeEESN_EESt10shared_ptrISJ_ESP_St12_PlaceholderILi1EEEEEEE11do_completeEPvPNS0_18win_iocp_operationESN_y"
 "_ZN4asio6detail23win_iocp_socket_recv_opINS_17mutable_buffers_1ENS_3ssl6detail5io_opINS_19basic_stream_socketINS_2ip3tcpENS_21stream_socket_serviceIS8_EEEENS4_12handshake_opESt5_BindIFSt7_Mem_fnIMN14ws_websocketpp9transport4asio10tls_socket10connectionEFvSt8functionIFvRKSt10error_codeEESN_EESt10shared_ptrISJ_ESP_St12_PlaceholderILi1EEEEEEE3ptr5resetEv"
 "_ZN4asio6detail23win_iocp_socket_recv_opINS_17mutable_buffers_1ENS_3ssl6detail5io_opINS_19basic_stream_socketINS_2ip3tcpENS_21stream_socket_serviceIS8_EEEENS4_7read_opIS2_EENS0_7read_opINS3_6streamISB_EES2_NS0_19transfer_at_least_tENS0_15wrapped_handlerINS_10io_service6strandEN14ws_websocketpp9transport4asio20custom_alloc_handlerISt5_BindIFSt7_Mem_fnIMNSN_10connectionINSL_6config15asio_tls_client16transport_configEEEFvSt8functionIFvRKSt10error_codeyEESZ_yEESt10shared_ptrISV_ES11_St12_PlaceholderILi1EES17_ILi2EEEEEENS0_26is_continuation_if_runningEEEEEEEE11do_completeEPvPNS0_18win_iocp_operationESZ_y"
 "_ZN4asio6detail23win_iocp_socket_recv_opINS_17mutable_buffers_1ENS_3ssl6detail5io_opINS_19basic_stream_socketINS_2ip3tcpENS_21stream_socket_serviceIS8_EEEENS4_7read_opIS2_EENS0_7read_opINS3_6streamISB_EES2_NS0_19transfer_at_least_tENS0_15wrapped_handlerINS_10io_service6strandEN14ws_websocketpp9transport4asio20custom_alloc_handlerISt5_BindIFSt7_Mem_fnIMNSN_10connectionINSL_6config15asio_tls_client16transport_configEEEFvSt8functionIFvRKSt10error_codeyEESZ_yEESt10shared_ptrISV_ES11_St12_PlaceholderILi1EES17_ILi2EEEEEENS0_26is_continuation_if_runningEEEEEEEE3ptr5resetEv"
 "_ZN4asio6detail23win_iocp_socket_recv_opINS_17mutable_buffers_1ENS_3ssl6detail5io_opINS_19basic_stream_socketINS_2ip3tcpENS_21stream_socket_serviceIS8_EEEENS4_8write_opINS0_17consuming_buffersINS_12const_bufferESt6vectorISE_SaISE_EEEEEENS0_8write_opINS3_6streamISB_EESH_NS0_14transfer_all_tENS0_15wrapped_handlerINS_10io_service6strandEN14ws_websocketpp9transport4asio20custom_alloc_handlerISt5_BindIFSt7_Mem_fnIMNST_10connectionINSR_6config15asio_tls_client16transport_configEEEFvSt8functionIFvRKSt10error_codeEES15_yEESt10shared_ptrIS11_ES17_St12_PlaceholderILi1EES1D_ILi2EEEEEENS0_26is_continuation_if_runningEEEEEEEE11do_completeEPvPNS0_18win_iocp_operationES15_y"
 "_ZN4asio6detail23win_iocp_socket_recv_opINS_17mutable_buffers_1ENS_3ssl6detail5io_opINS_19basic_stream_socketINS_2ip3tcpENS_21stream_socket_serviceIS8_EEEENS4_8write_opINS0_17consuming_buffersINS_12const_bufferESt6vectorISE_SaISE_EEEEEENS0_8write_opINS3_6streamISB_EESH_NS0_14transfer_all_tENS0_15wrapped_handlerINS_10io_service6strandEN14ws_websocketpp9transport4asio20custom_alloc_handlerISt5_BindIFSt7_Mem_fnIMNST_10connectionINSR_6config15asio_tls_client16transport_configEEEFvSt8functionIFvRKSt10error_codeEES15_yEESt10shared_ptrIS11_ES17_St12_PlaceholderILi1EES1D_ILi2EEEEEENS0_26is_continuation_if_runningEEEEEEEE3ptr5resetEv"
 "_ZN4asio6detail23win_iocp_socket_recv_opINS_17mutable_buffers_1ENS0_26read_until_delim_string_opINS_19basic_stream_socketINS_2ip3tcpENS_21stream_socket_serviceIS6_EEEENS_19basic_streambuf_refISaIcEEENS0_15wrapped_handlerINS_10io_service6strandESt5_BindIFSt7_Mem_fnIMN14ws_websocketpp9transport4asio10connectionINSI_6config11asio_client16transport_configEEEFvSt8functionIFvRKSt10error_codeEEST_yEESt10shared_ptrISP_ESV_St12_PlaceholderILi1EES11_ILi2EEEENS0_26is_continuation_if_runningEEEEEE11do_completeEPvPNS0_18win_iocp_operationEST_y"
 "_ZN4asio6detail23win_iocp_socket_recv_opINS_17mutable_buffers_1ENS0_26read_until_delim_string_opINS_19basic_stream_socketINS_2ip3tcpENS_21stream_socket_serviceIS6_EEEENS_19basic_streambuf_refISaIcEEENS0_15wrapped_handlerINS_10io_service6strandESt5_BindIFSt7_Mem_fnIMN14ws_websocketpp9transport4asio10connectionINSI_6config11asio_client16transport_configEEEFvSt8functionIFvRKSt10error_codeEEST_yEESt10shared_ptrISP_ESV_St12_PlaceholderILi1EES11_ILi2EEEENS0_26is_continuation_if_runningEEEEEE3ptr5resetEv"
 "_ZN4asio6detail23win_iocp_socket_recv_opINS_17mutable_buffers_1ENS0_26read_until_delim_string_opINS_19basic_stream_socketINS_2ip3tcpENS_21stream_socket_serviceIS6_EEEENS_19basic_streambuf_refISaIcEEENS0_15wrapped_handlerINS_10io_service6strandESt5_BindIFSt7_Mem_fnIMN14ws_websocketpp9transport4asio10connectionINSI_6config15asio_tls_client16transport_configEEEFvSt8functionIFvRKSt10error_codeEEST_yEESt10shared_ptrISP_ESV_St12_PlaceholderILi1EES11_ILi2EEEENS0_26is_continuation_if_runningEEEEEE11do_completeEPvPNS0_18win_iocp_operationEST_y"
 "_ZN4asio6detail23win_iocp_socket_recv_opINS_17mutable_buffers_1ENS0_26read_until_delim_string_opINS_19basic_stream_socketINS_2ip3tcpENS_21stream_socket_serviceIS6_EEEENS_19basic_streambuf_refISaIcEEENS0_15wrapped_handlerINS_10io_service6strandESt5_BindIFSt7_Mem_fnIMN14ws_websocketpp9transport4asio10connectionINSI_6config15asio_tls_client16transport_configEEEFvSt8functionIFvRKSt10error_codeEEST_yEESt10shared_ptrISP_ESV_St12_PlaceholderILi1EES11_ILi2EEEENS0_26is_continuation_if_runningEEEEEE3ptr5resetEv"
 "_ZN4asio6detail23win_iocp_socket_recv_opINS_17mutable_buffers_1ENS0_7read_opINS_19basic_stream_socketINS_2ip3tcpENS_21stream_socket_serviceIS6_EEEES2_NS0_19transfer_at_least_tENS0_15wrapped_handlerINS_10io_service6strandEN14ws_websocketpp9transport4asio20custom_alloc_handlerISt5_BindIFSt7_Mem_fnIMNSG_10connectionINSE_6config11asio_client16transport_configEEEFvSt8functionIFvRKSt10error_codeyEESS_yEESt10shared_ptrISO_ESU_St12_PlaceholderILi1EES10_ILi2EEEEEENS0_26is_continuation_if_runningEEEEEE11do_completeEPvPNS0_18win_iocp_operationESS_y"
 "_ZN4asio6detail23win_iocp_socket_recv_opINS_17mutable_buffers_1ENS0_7read_opINS_19basic_stream_socketINS_2ip3tcpENS_21stream_socket_serviceIS6_EEEES2_NS0_19transfer_at_least_tENS0_15wrapped_handlerINS_10io_service6strandEN14ws_websocketpp9transport4asio20custom_alloc_handlerISt5_BindIFSt7_Mem_fnIMNSG_10connectionINSE_6config11asio_client16transport_configEEEFvSt8functionIFvRKSt10error_codeyEESS_yEESt10shared_ptrISO_ESU_St12_PlaceholderILi1EES10_ILi2EEEEEENS0_26is_continuation_if_runningEEEEEE3ptr5resetEv"
 "_ZN4asio6detail23win_iocp_socket_send_opINS_17mutable_buffers_1ENS0_8write_opINS_19basic_stream_socketINS_2ip3tcpENS_21stream_socket_serviceIS6_EEEES2_NS0_14transfer_all_tENS_3ssl6detail5io_opIS9_NSC_11shutdown_opENS0_15wrapped_handlerINS_10io_service6strandESt8functionIFvRKSt10error_codeEENS0_26is_continuation_if_runningEEEEEEEE11do_completeEPvPNS0_18win_iocp_operationESL_y"
 "_ZN4asio6detail23win_iocp_socket_send_opINS_17mutable_buffers_1ENS0_8write_opINS_19basic_stream_socketINS_2ip3tcpENS_21stream_socket_serviceIS6_EEEES2_NS0_14transfer_all_tENS_3ssl6detail5io_opIS9_NSC_11shutdown_opENS0_15wrapped_handlerINS_10io_service6strandESt8functionIFvRKSt10error_codeEENS0_26is_continuation_if_runningEEEEEEEE3ptr5resetEv"
 "_ZN4asio6detail23win_iocp_socket_send_opINS_17mutable_buffers_1ENS0_8write_opINS_19basic_stream_socketINS_2ip3tcpENS_21stream_socket_serviceIS6_EEEES2_NS0_14transfer_all_tENS_3ssl6detail5io_opIS9_NSC_11shutdown_opESt8functionIFvRKSt10error_codeEEEEEEE11do_completeEPvPNS0_18win_iocp_operationESI_y"
 "_ZN4asio6detail23win_iocp_socket_send_opINS_17mutable_buffers_1ENS0_8write_opINS_19basic_stream_socketINS_2ip3tcpENS_21stream_socket_serviceIS6_EEEES2_NS0_14transfer_all_tENS_3ssl6detail5io_opIS9_NSC_11shutdown_opESt8functionIFvRKSt10error_codeEEEEEEE3ptr5resetEv"
 "_ZN4asio6detail23win_iocp_socket_send_opINS_17mutable_buffers_1ENS0_8write_opINS_19basic_stream_socketINS_2ip3tcpENS_21stream_socket_serviceIS6_EEEES2_NS0_14transfer_all_tENS_3ssl6detail5io_opIS9_NSC_12handshake_opENS0_15wrapped_handlerINS_10io_service6strandESt5_BindIFSt7_Mem_fnIMN14ws_websocketpp9transport4asio10tls_socket10connectionEFvSt8functionIFvRKSt10error_codeEESS_EESt10shared_ptrISO_ESU_St12_PlaceholderILi1EEEENS0_26is_continuation_if_runningEEEEEEEE11do_completeEPvPNS0_18win_iocp_operationESS_y"
 "_ZN4asio6detail23win_iocp_socket_send_opINS_17mutable_buffers_1ENS0_8write_opINS_19basic_stream_socketINS_2ip3tcpENS_21stream_socket_serviceIS6_EEEES2_NS0_14transfer_all_tENS_3ssl6detail5io_opIS9_NSC_12handshake_opENS0_15wrapped_handlerINS_10io_service6strandESt5_BindIFSt7_Mem_fnIMN14ws_websocketpp9transport4asio10tls_socket10connectionEFvSt8functionIFvRKSt10error_codeEESS_EESt10shared_ptrISO_ESU_St12_PlaceholderILi1EEEENS0_26is_continuation_if_runningEEEEEEEE3ptr5resetEv"
 "_ZN4asio6detail23win_iocp_socket_send_opINS_17mutable_buffers_1ENS0_8write_opINS_19basic_stream_socketINS_2ip3tcpENS_21stream_socket_serviceIS6_EEEES2_NS0_14transfer_all_tENS_3ssl6detail5io_opIS9_NSC_12handshake_opESt5_BindIFSt7_Mem_fnIMN14ws_websocketpp9transport4asio10tls_socket10connectionEFvSt8functionIFvRKSt10error_codeEESP_EESt10shared_ptrISL_ESR_St12_PlaceholderILi1EEEEEEEEE11do_completeEPvPNS0_18win_iocp_operationESP_y"
 "_ZN4asio6detail23win_iocp_socket_send_opINS_17mutable_buffers_1ENS0_8write_opINS_19basic_stream_socketINS_2ip3tcpENS_21stream_socket_serviceIS6_EEEES2_NS0_14transfer_all_tENS_3ssl6detail5io_opIS9_NSC_12handshake_opESt5_BindIFSt7_Mem_fnIMN14ws_websocketpp9transport4asio10tls_socket10connectionEFvSt8functionIFvRKSt10error_codeEESP_EESt10shared_ptrISL_ESR_St12_PlaceholderILi1EEEEEEEEE3ptr5resetEv"
 "_ZN4asio6detail23win_iocp_socket_send_opINS_17mutable_buffers_1ENS0_8write_opINS_19basic_stream_socketINS_2ip3tcpENS_21stream_socket_serviceIS6_EEEES2_NS0_14transfer_all_tENS_3ssl6detail5io_opIS9_NSC_7read_opIS2_EENS0_7read_opINSB_6streamIS9_EES2_NS0_19transfer_at_least_tENS0_15wrapped_handlerINS_10io_service6strandEN14ws_websocketpp9transport4asio20custom_alloc_handlerISt5_BindIFSt7_Mem_fnIMNSP_10connectionINSN_6config15asio_tls_client16transport_configEEEFvSt8functionIFvRKSt10error_codeyEES11_yEESt10shared_ptrISX_ES13_St12_PlaceholderILi1EES19_ILi2EEEEEENS0_26is_continuation_if_runningEEEEEEEEEE11do_completeEPvPNS0_18win_iocp_operationES11_y"
 "_ZN4asio6detail23win_iocp_socket_send_opINS_17mutable_buffers_1ENS0_8write_opINS_19basic_stream_socketINS_2ip3tcpENS_21stream_socket_serviceIS6_EEEES2_NS0_14transfer_all_tENS_3ssl6detail5io_opIS9_NSC_7read_opIS2_EENS0_7read_opINSB_6streamIS9_EES2_NS0_19transfer_at_least_tENS0_15wrapped_handlerINS_10io_service6strandEN14ws_websocketpp9transport4asio20custom_alloc_handlerISt5_BindIFSt7_Mem_fnIMNSP_10connectionINSN_6config15asio_tls_client16transport_configEEEFvSt8functionIFvRKSt10error_codeyEES11_yEESt10shared_ptrISX_ES13_St12_PlaceholderILi1EES19_ILi2EEEEEENS0_26is_continuation_if_runningEEEEEEEEEE3ptr5resetEv"
 "_ZN4asio6detail23win_iocp_socket_send_opINS_17mutable_buffers_1ENS0_8write_opINS_19basic_stream_socketINS_2ip3tcpENS_21stream_socket_serviceIS6_EEEES2_NS0_14transfer_all_tENS_3ssl6detail5io_opIS9_NSC_8write_opINS0_17consuming_buffersINS_12const_bufferESt6vectorISG_SaISG_EEEEEENS3_INSB_6streamIS9_EESJ_SA_NS0_15wrapped_handlerINS_10io_service6strandEN14ws_websocketpp9transport4asio20custom_alloc_handlerISt5_BindIFSt7_Mem_fnIMNST_10connectionINSR_6config15asio_tls_client16transport_configEEEFvSt8functionIFvRKSt10error_codeEES15_yEESt10shared_ptrIS11_ES17_St12_PlaceholderILi1EES1D_ILi2EEEEEENS0_26is_continuation_if_runningEEEEEEEEEE11do_completeEPvPNS0_18win_iocp_operationES15_y"
 "_ZN4asio6detail23win_iocp_socket_send_opINS_17mutable_buffers_1ENS0_8write_opINS_19basic_stream_socketINS_2ip3tcpENS_21stream_socket_serviceIS6_EEEES2_NS0_14transfer_all_tENS_3ssl6detail5io_opIS9_NSC_8write_opINS0_17consuming_buffersINS_12const_bufferESt6vectorISG_SaISG_EEEEEENS3_INSB_6streamIS9_EESJ_SA_NS0_15wrapped_handlerINS_10io_service6strandEN14ws_websocketpp9transport4asio20custom_alloc_handlerISt5_BindIFSt7_Mem_fnIMNST_10connectionINSR_6config15asio_tls_client16transport_configEEEFvSt8functionIFvRKSt10error_codeEES15_yEESt10shared_ptrIS11_ES17_St12_PlaceholderILi1EES1D_ILi2EEEEEENS0_26is_continuation_if_runningEEEEEEEEEE3ptr5resetEv"
 "_ZN4asio6detail23win_iocp_socket_send_opINS0_17consuming_buffersINS_12const_bufferESt6vectorIS3_SaIS3_EEEENS0_8write_opINS_19basic_stream_socketINS_2ip3tcpENS_21stream_socket_serviceISB_EEEES6_NS0_14transfer_all_tENS0_15wrapped_handlerINS_10io_service6strandEN14ws_websocketpp9transport4asio20custom_alloc_handlerISt5_BindIFSt7_Mem_fnIMNSL_10connectionINSJ_6config11asio_client16transport_configEEEFvSt8functionIFvRKSt10error_codeEESX_yEESt10shared_ptrIST_ESZ_St12_PlaceholderILi1EES15_ILi2EEEEEENS0_26is_continuation_if_runningEEEEEE11do_completeEPvPNS0_18win_iocp_operationESX_y"
 "_ZN4asio6detail23win_iocp_socket_send_opINS0_17consuming_buffersINS_12const_bufferESt6vectorIS3_SaIS3_EEEENS0_8write_opINS_19basic_stream_socketINS_2ip3tcpENS_21stream_socket_serviceISB_EEEES6_NS0_14transfer_all_tENS0_15wrapped_handlerINS_10io_service6strandEN14ws_websocketpp9transport4asio20custom_alloc_handlerISt5_BindIFSt7_Mem_fnIMNSL_10connectionINSJ_6config11asio_client16transport_configEEEFvSt8functionIFvRKSt10error_codeEESX_yEESt10shared_ptrIST_ESZ_St12_PlaceholderILi1EES15_ILi2EEEEEENS0_26is_continuation_if_runningEEEEEE3ptr5resetEv"
 "_ZN4asio6detail23win_iocp_socket_send_opINS0_17consuming_buffersINS_12const_bufferESt6vectorIS3_SaIS3_EEEENS0_8write_opINS_19basic_stream_socketINS_2ip3tcpENS_21stream_socket_serviceISB_EEEES6_NS0_14transfer_all_tENS0_15wrapped_handlerINS_10io_service6strandESt5_BindIFSt7_Mem_fnIMN14ws_websocketpp9transport4asio10connectionINSL_6config11asio_client16transport_configEEEFvSt8functionIFvRKSt10error_codeEESW_EESt10shared_ptrISS_ESY_St12_PlaceholderILi1EEEENS0_26is_continuation_if_runningEEEEEE11do_completeEPvPNS0_18win_iocp_operationESW_y"
 "_ZN4asio6detail23win_iocp_socket_send_opINS0_17consuming_buffersINS_12const_bufferESt6vectorIS3_SaIS3_EEEENS0_8write_opINS_19basic_stream_socketINS_2ip3tcpENS_21stream_socket_serviceISB_EEEES6_NS0_14transfer_all_tENS0_15wrapped_handlerINS_10io_service6strandESt5_BindIFSt7_Mem_fnIMN14ws_websocketpp9transport4asio10connectionINSL_6config11asio_client16transport_configEEEFvSt8functionIFvRKSt10error_codeEESW_EESt10shared_ptrISS_ESY_St12_PlaceholderILi1EEEENS0_26is_continuation_if_runningEEEEEE3ptr5resetEv"
 "_ZN4asio6detail23win_iocp_socket_send_opINS0_17consuming_buffersINS_12const_bufferESt6vectorIS3_SaIS3_EEEENS0_8write_opINS_19basic_stream_socketINS_2ip3tcpENS_21stream_socket_serviceISB_EEEES6_NS0_14transfer_all_tENS0_15wrapped_handlerINS_10io_service6strandESt5_BindIFSt7_Mem_fnIMN14ws_websocketpp9transport4asio10connectionINSL_6config15asio_tls_client16transport_configEEEFvSt8functionIFvRKSt10error_codeEESW_EESt10shared_ptrISS_ESY_St12_PlaceholderILi1EEEENS0_26is_continuation_if_runningEEEEEE11do_completeEPvPNS0_18win_iocp_operationESW_y"
 "_ZN4asio6detail23win_iocp_socket_send_opINS0_17consuming_buffersINS_12const_bufferESt6vectorIS3_SaIS3_EEEENS0_8write_opINS_19basic_stream_socketINS_2ip3tcpENS_21stream_socket_serviceISB_EEEES6_NS0_14transfer_all_tENS0_15wrapped_handlerINS_10io_service6strandESt5_BindIFSt7_Mem_fnIMN14ws_websocketpp9transport4asio10connectionINSL_6config15asio_tls_client16transport_configEEEFvSt8functionIFvRKSt10error_codeEESW_EESt10shared_ptrISS_ESY_St12_PlaceholderILi1EEEENS0_26is_continuation_if_runningEEEEEE3ptr5resetEv"
 "_ZN4asio6detail23win_iocp_socket_serviceINS_2ip3tcpEE4openERNS4_19implementation_typeERKS3_RSt10error_code"
 "_ZN4asio6detail25socket_select_interrupter16open_descriptorsEv"
 "_ZN4asio6detail26read_until_delim_string_opINS_19basic_stream_socketINS_2ip3tcpENS_21stream_socket_serviceIS4_EEEENS_19basic_streambuf_refISaIcEEENS0_15wrapped_handlerINS_10io_service6strandESt5_BindIFSt7_Mem_fnIMN14ws_websocketpp9transport4asio10connectionINSG_6config11asio_client16transport_configEEEFvSt8functionIFvRKSt10error_codeEESR_yEESt10shared_ptrISN_EST_St12_PlaceholderILi1EESZ_ILi2EEEENS0_26is_continuation_if_runningEEEEclESR_yi"
 "_ZN4asio6detail26read_until_delim_string_opINS_19basic_stream_socketINS_2ip3tcpENS_21stream_socket_serviceIS4_EEEENS_19basic_streambuf_refISaIcEEENS0_15wrapped_handlerINS_10io_service6strandESt5_BindIFSt7_Mem_fnIMN14ws_websocketpp9transport4asio10connectionINSG_6config11asio_client16transport_configEEEFvSt8functionIFvRKSt10error_codeEESR_yEESt10shared_ptrISN_EST_St12_PlaceholderILi1EESZ_ILi2EEEENS0_26is_continuation_if_runningEEEED1Ev"
 "_ZN4asio6detail26read_until_delim_string_opINS_19basic_stream_socketINS_2ip3tcpENS_21stream_socket_serviceIS4_EEEENS_19basic_streambuf_refISaIcEEENS0_15wrapped_handlerINS_10io_service6strandESt5_BindIFSt7_Mem_fnIMN14ws_websocketpp9transport4asio10connectionINSG_6config15asio_tls_client16transport_configEEEFvSt8functionIFvRKSt10error_codeEESR_yEESt10shared_ptrISN_EST_St12_PlaceholderILi1EESZ_ILi2EEEENS0_26is_continuation_if_runningEEEEclESR_yi"
 "_ZN4asio6detail26read_until_delim_string_opINS_19basic_stream_socketINS_2ip3tcpENS_21stream_socket_serviceIS4_EEEENS_19basic_streambuf_refISaIcEEENS0_15wrapped_handlerINS_10io_service6strandESt5_BindIFSt7_Mem_fnIMN14ws_websocketpp9transport4asio10connectionINSG_6config15asio_tls_client16transport_configEEEFvSt8functionIFvRKSt10error_codeEESR_yEESt10shared_ptrISN_EST_St12_PlaceholderILi1EESZ_ILi2EEEENS0_26is_continuation_if_runningEEEED1Ev"
 "_ZN4asio6detail26win_iocp_socket_connect_opINS0_10connect_opINS_2ip3tcpENS_21stream_socket_serviceIS4_EENS3_23basic_resolver_iteratorIS4_EENS0_25default_connect_conditionENS0_15wrapped_handlerINS_10io_service6strandESt5_BindIFSt7_Mem_fnIMN14ws_websocketpp9transport4asio8endpointINSF_6config11asio_client16transport_configEEEFvSt10shared_ptrINSH_10connectionISL_EEESN_INS_20basic_waitable_timerINSt6chrono3_V212steady_clockENS_11wait_traitsISU_EENS_22waitable_timer_serviceISU_SW_EEEEESt8functionIFvRKSt10error_codeEES14_EEPSM_SQ_S10_S16_St12_PlaceholderILi1EEEENS0_26is_continuation_if_runningEEEEEE11do_completeEPvPNS0_18win_iocp_operationES14_y"
 "_ZN4asio6detail26win_iocp_socket_connect_opINS0_10connect_opINS_2ip3tcpENS_21stream_socket_serviceIS4_EENS3_23basic_resolver_iteratorIS4_EENS0_25default_connect_conditionENS0_15wrapped_handlerINS_10io_service6strandESt5_BindIFSt7_Mem_fnIMN14ws_websocketpp9transport4asio8endpointINSF_6config11asio_client16transport_configEEEFvSt10shared_ptrINSH_10connectionISL_EEESN_INS_20basic_waitable_timerINSt6chrono3_V212steady_clockENS_11wait_traitsISU_EENS_22waitable_timer_serviceISU_SW_EEEEESt8functionIFvRKSt10error_codeEES14_EEPSM_SQ_S10_S16_St12_PlaceholderILi1EEEENS0_26is_continuation_if_runningEEEEEE3ptr5resetEv"
 "_ZN4asio6detail26win_iocp_socket_connect_opINS0_10connect_opINS_2ip3tcpENS_21stream_socket_serviceIS4_EENS3_23basic_resolver_iteratorIS4_EENS0_25default_connect_conditionENS0_15wrapped_handlerINS_10io_service6strandESt5_BindIFSt7_Mem_fnIMN14ws_websocketpp9transport4asio8endpointINSF_6config15asio_tls_client16transport_configEEEFvSt10shared_ptrINSH_10connectionISL_EEESN_INS_20basic_waitable_timerINSt6chrono3_V212steady_clockENS_11wait_traitsISU_EENS_22waitable_timer_serviceISU_SW_EEEEESt8functionIFvRKSt10error_codeEES14_EEPSM_SQ_S10_S16_St12_PlaceholderILi1EEEENS0_26is_continuation_if_runningEEEEEE11do_completeEPvPNS0_18win_iocp_operationES14_y"
 "_ZN4asio6detail26win_iocp_socket_connect_opINS0_10connect_opINS_2ip3tcpENS_21stream_socket_serviceIS4_EENS3_23basic_resolver_iteratorIS4_EENS0_25default_connect_conditionENS0_15wrapped_handlerINS_10io_service6strandESt5_BindIFSt7_Mem_fnIMN14ws_websocketpp9transport4asio8endpointINSF_6config15asio_tls_client16transport_configEEEFvSt10shared_ptrINSH_10connectionISL_EEESN_INS_20basic_waitable_timerINSt6chrono3_V212steady_clockENS_11wait_traitsISU_EENS_22waitable_timer_serviceISU_SW_EEEEESt8functionIFvRKSt10error_codeEES14_EEPSM_SQ_S10_S16_St12_PlaceholderILi1EEEENS0_26is_continuation_if_runningEEEEEE3ptr5resetEv"
 "_ZN4asio6detail28win_iocp_socket_service_base13async_receiveINS_17mutable_buffers_1ENS_3ssl6detail5io_opINS_19basic_stream_socketINS_2ip3tcpENS_21stream_socket_serviceIS9_EEEENS5_11shutdown_opENS0_15wrapped_handlerINS_10io_service6strandESt8functionIFvRKSt10error_codeEENS0_26is_continuation_if_runningEEEEEEEvRNS1_24base_implementation_typeERKT_iRT0_"
 "_ZN4asio6detail28win_iocp_socket_service_base13async_receiveINS_17mutable_buffers_1ENS_3ssl6detail5io_opINS_19basic_stream_socketINS_2ip3tcpENS_21stream_socket_serviceIS9_EEEENS5_11shutdown_opESt8functionIFvRKSt10error_codeEEEEEEvRNS1_24base_implementation_typeERKT_iRT0_"
 "_ZN4asio6detail28win_iocp_socket_service_base13async_receiveINS_17mutable_buffers_1ENS_3ssl6detail5io_opINS_19basic_stream_socketINS_2ip3tcpENS_21stream_socket_serviceIS9_EEEENS5_12handshake_opENS0_15wrapped_handlerINS_10io_service6strandESt5_BindIFSt7_Mem_fnIMN14ws_websocketpp9transport4asio10tls_socket10connectionEFvSt8functionIFvRKSt10error_codeEESR_EESt10shared_ptrISN_EST_St12_PlaceholderILi1EEEENS0_26is_continuation_if_runningEEEEEEEvRNS1_24base_implementation_typeERKT_iRT0_"
 "_ZN4asio6detail28win_iocp_socket_service_base13async_receiveINS_17mutable_buffers_1ENS_3ssl6detail5io_opINS_19basic_stream_socketINS_2ip3tcpENS_21stream_socket_serviceIS9_EEEENS5_12handshake_opESt5_BindIFSt7_Mem_fnIMN14ws_websocketpp9transport4asio10tls_socket10connectionEFvSt8functionIFvRKSt10error_codeEESO_EESt10shared_ptrISK_ESQ_St12_PlaceholderILi1EEEEEEEEvRNS1_24base_implementation_typeERKT_iRT0_"
 "_ZN4asio6detail28win_iocp_socket_service_base13async_receiveINS_17mutable_buffers_1ENS_3ssl6detail5io_opINS_19basic_stream_socketINS_2ip3tcpENS_21stream_socket_serviceIS9_EEEENS5_7read_opIS3_EENS0_7read_opINS4_6streamISC_EES3_NS0_19transfer_at_least_tENS0_15wrapped_handlerINS_10io_service6strandEN14ws_websocketpp9transport4asio20custom_alloc_handlerISt5_BindIFSt7_Mem_fnIMNSO_10connectionINSM_6config15asio_tls_client16transport_configEEEFvSt8functionIFvRKSt10error_codeyEES10_yEESt10shared_ptrISW_ES12_St12_PlaceholderILi1EES18_ILi2EEEEEENS0_26is_continuation_if_runningEEEEEEEEEvRNS1_24base_implementation_typeERKT_iRT0_"
 "_ZN4asio6detail28win_iocp_socket_service_base13async_receiveINS_17mutable_buffers_1ENS_3ssl6detail5io_opINS_19basic_stream_socketINS_2ip3tcpENS_21stream_socket_serviceIS9_EEEENS5_8write_opINS0_17consuming_buffersINS_12const_bufferESt6vectorISF_SaISF_EEEEEENS0_8write_opINS4_6streamISC_EESI_NS0_14transfer_all_tENS0_15wrapped_handlerINS_10io_service6strandEN14ws_websocketpp9transport4asio20custom_alloc_handlerISt5_BindIFSt7_Mem_fnIMNSU_10connectionINSS_6config15asio_tls_client16transport_configEEEFvSt8functionIFvRKSt10error_codeEES16_yEESt10shared_ptrIS12_ES18_St12_PlaceholderILi1EES1E_ILi2EEEEEENS0_26is_continuation_if_runningEEEEEEEEEvRNS1_24base_implementation_typeERKT_iRT0_"
 "_ZN4asio6detail28win_iocp_socket_service_base13start_send_opERNS1_24base_implementation_typeEP7_WSABUFyibPNS0_18win_iocp_operationE"
 "_ZN4asio6detail28win_iocp_socket_service_base16start_connect_opERNS1_24base_implementation_typeEiiPK8sockaddryPNS0_31win_iocp_socket_connect_op_baseE"
 "_ZN4asio6detail28win_iocp_socket_service_base16start_receive_opERNS1_24base_implementation_typeEP7_WSABUFyibPNS0_18win_iocp_operationE"
 "_ZN4asio6detail31win_iocp_socket_connect_op_base10do_performEPNS0_10reactor_opE"
 "_ZN4asio6detail7binder2INS0_15wrapped_handlerINS_10io_service6strandESt5_BindIFSt7_Mem_fnIMN14ws_websocketpp9transport4asio8endpointINS7_6config11asio_client16transport_configEEEFvSt10shared_ptrINS9_10connectionISD_EEESF_INS_20basic_waitable_timerINSt6chrono3_V212steady_clockENS_11wait_traitsISM_EENS_22waitable_timer_serviceISM_SO_EEEEESt8functionIFvRKSt10error_codeEESW_NS_2ip23basic_resolver_iteratorINSZ_3tcpEEEEEPSE_SI_SS_SY_St12_PlaceholderILi1EES17_ILi2EEEENS0_26is_continuation_if_runningEEESU_S12_ED1Ev"
 "_ZN4asio6detail7binder2INS0_15wrapped_handlerINS_10io_service6strandESt5_BindIFSt7_Mem_fnIMN14ws_websocketpp9transport4asio8endpointINS7_6config15asio_tls_client16transport_configEEEFvSt10shared_ptrINS9_10connectionISD_EEESF_INS_20basic_waitable_timerINSt6chrono3_V212steady_clockENS_11wait_traitsISM_EENS_22waitable_timer_serviceISM_SO_EEEEESt8functionIFvRKSt10error_codeEESW_NS_2ip23basic_resolver_iteratorINSZ_3tcpEEEEEPSE_SI_SS_SY_St12_PlaceholderILi1EES17_ILi2EEEENS0_26is_continuation_if_runningEEESU_S12_ED1Ev"
 "_ZN4asio6detail7read_opINS_19basic_stream_socketINS_2ip3tcpENS_21stream_socket_serviceIS4_EEEENS_17mutable_buffers_1ENS0_19transfer_at_least_tENS0_15wrapped_handlerINS_10io_service6strandEN14ws_websocketpp9transport4asio20custom_alloc_handlerISt5_BindIFSt7_Mem_fnIMNSF_10connectionINSD_6config11asio_client16transport_configEEEFvSt8functionIFvRKSt10error_codeyEESR_yEESt10shared_ptrISN_EST_St12_PlaceholderILi1EESZ_ILi2EEEEEENS0_26is_continuation_if_runningEEEEclESR_yi"
 "_ZN4asio6detail7read_opINS_3ssl6streamINS_19basic_stream_socketINS_2ip3tcpENS_21stream_socket_serviceIS6_EEEEEENS_17mutable_buffers_1ENS0_19transfer_at_least_tENS0_15wrapped_handlerINS_10io_service6strandEN14ws_websocketpp9transport4asio20custom_alloc_handlerISt5_BindIFSt7_Mem_fnIMNSI_10connectionINSG_6config15asio_tls_client16transport_configEEEFvSt8functionIFvRKSt10error_codeyEESU_yEESt10shared_ptrISQ_ESW_St12_PlaceholderILi1EES12_ILi2EEEEEENS0_26is_continuation_if_runningEEEEclESU_yi"
 "_ZN4asio6detail8hash_mapIyNS0_16reactor_op_queueIyE11mapped_typeEE13values_insertESt14_List_iteratorISt4pairIyS4_EERKS8_"
 "_ZN4asio6detail8hash_mapIyNS0_16reactor_op_queueIyE11mapped_typeEE5eraseESt14_List_iteratorISt4pairIyS4_EE"
 "_ZN4asio6detail8hash_mapIyNS0_16reactor_op_queueIyE11mapped_typeEE6rehashEy"
 "_ZN4asio6detail8op_queueINS0_10reactor_opEED2Ev"
 "_ZN4asio6detail8op_queueINS0_18win_iocp_operationEED1Ev"
 "_ZN4asio6detail8write_opINS_19basic_stream_socketINS_2ip3tcpENS_21stream_socket_serviceIS4_EEEENS_17mutable_buffers_1ENS0_14transfer_all_tENS_3ssl6detail5io_opIS7_NSB_11shutdown_opENS0_15wrapped_handlerINS_10io_service6strandESt8functionIFvRKSt10error_codeEENS0_26is_continuation_if_runningEEEEEEclESK_yi"
 "_ZN4asio6detail8write_opINS_19basic_stream_socketINS_2ip3tcpENS_21stream_socket_serviceIS4_EEEENS_17mutable_buffers_1ENS0_14transfer_all_tENS_3ssl6detail5io_opIS7_NSB_11shutdown_opESt8functionIFvRKSt10error_codeEEEEEclESH_yi"
 "_ZN4asio6detail8write_opINS_19basic_stream_socketINS_2ip3tcpENS_21stream_socket_serviceIS4_EEEENS_17mutable_buffers_1ENS0_14transfer_all_tENS_3ssl6detail5io_opIS7_NSB_12handshake_opENS0_15wrapped_handlerINS_10io_service6strandESt5_BindIFSt7_Mem_fnIMN14ws_websocketpp9transport4asio10tls_socket10connectionEFvSt8functionIFvRKSt10error_codeEESR_EESt10shared_ptrISN_EST_St12_PlaceholderILi1EEEENS0_26is_continuation_if_runningEEEEEEclESR_yi"
 "_ZN4asio6detail8write_opINS_19basic_stream_socketINS_2ip3tcpENS_21stream_socket_serviceIS4_EEEENS_17mutable_buffers_1ENS0_14transfer_all_tENS_3ssl6detail5io_opIS7_NSB_12handshake_opESt5_BindIFSt7_Mem_fnIMN14ws_websocketpp9transport4asio10tls_socket10connectionEFvSt8functionIFvRKSt10error_codeEESO_EESt10shared_ptrISK_ESQ_St12_PlaceholderILi1EEEEEEEclESO_yi"
 "_ZN4asio6detail8write_opINS_19basic_stream_socketINS_2ip3tcpENS_21stream_socket_serviceIS4_EEEENS_17mutable_buffers_1ENS0_14transfer_all_tENS_3ssl6detail5io_opIS7_NSB_7read_opIS8_EENS0_7read_opINSA_6streamIS7_EES8_NS0_19transfer_at_least_tENS0_15wrapped_handlerINS_10io_service6strandEN14ws_websocketpp9transport4asio20custom_alloc_handlerISt5_BindIFSt7_Mem_fnIMNSO_10connectionINSM_6config15asio_tls_client16transport_configEEEFvSt8functionIFvRKSt10error_codeyEES10_yEESt10shared_ptrISW_ES12_St12_PlaceholderILi1EES18_ILi2EEEEEENS0_26is_continuation_if_runningEEEEEEEEclES10_yi"
 "_ZN4asio6detail8write_opINS_19basic_stream_socketINS_2ip3tcpENS_21stream_socket_serviceIS4_EEEENS_17mutable_buffers_1ENS0_14transfer_all_tENS_3ssl6detail5io_opIS7_NSB_8write_opINS0_17consuming_buffersINS_12const_bufferESt6vectorISF_SaISF_EEEEEENS1_INSA_6streamIS7_EESI_S9_NS0_15wrapped_handlerINS_10io_service6strandEN14ws_websocketpp9transport4asio20custom_alloc_handlerISt5_BindIFSt7_Mem_fnIMNSS_10connectionINSQ_6config15asio_tls_client16transport_configEEEFvSt8functionIFvRKSt10error_codeEES14_yEESt10shared_ptrIS10_ES16_St12_PlaceholderILi1EES1C_ILi2EEEEEENS0_26is_continuation_if_runningEEEEEEEEclES14_yi"
 "_ZN4asio6detail8write_opINS_19basic_stream_socketINS_2ip3tcpENS_21stream_socket_serviceIS4_EEEESt6vectorINS_12const_bufferESaIS9_EENS0_14transfer_all_tENS0_15wrapped_handlerINS_10io_service6strandEN14ws_websocketpp9transport4asio20custom_alloc_handlerISt5_BindIFSt7_Mem_fnIMNSI_10connectionINSG_6config11asio_client16transport_configEEEFvSt8functionIFvRKSt10error_codeEESU_yEESt10shared_ptrISQ_ESW_St12_PlaceholderILi1EES12_ILi2EEEEEENS0_26is_continuation_if_runningEEEEclESU_yi"
 "_ZN4asio6detail8write_opINS_19basic_stream_socketINS_2ip3tcpENS_21stream_socket_serviceIS4_EEEESt6vectorINS_12const_bufferESaIS9_EENS0_14transfer_all_tENS0_15wrapped_handlerINS_10io_service6strandEN14ws_websocketpp9transport4asio20custom_alloc_handlerISt5_BindIFSt7_Mem_fnIMNSI_10connectionINSG_6config11asio_client16transport_configEEEFvSt8functionIFvRKSt10error_codeEESU_yEESt10shared_ptrISQ_ESW_St12_PlaceholderILi1EES12_ILi2EEEEEENS0_26is_continuation_if_runningEEEED1Ev"
 "_ZN4asio6detail8write_opINS_19basic_stream_socketINS_2ip3tcpENS_21stream_socket_serviceIS4_EEEESt6vectorINS_12const_bufferESaIS9_EENS0_14transfer_all_tENS0_15wrapped_handlerINS_10io_service6strandESt5_BindIFSt7_Mem_fnIMN14ws_websocketpp9transport4asio10connectionINSI_6config11asio_client16transport_configEEEFvSt8functionIFvRKSt10error_codeEEST_EESt10shared_ptrISP_ESV_St12_PlaceholderILi1EEEENS0_26is_continuation_if_runningEEEEclEST_yi"
 "_ZN4asio6detail8write_opINS_19basic_stream_socketINS_2ip3tcpENS_21stream_socket_serviceIS4_EEEESt6vectorINS_12const_bufferESaIS9_EENS0_14transfer_all_tENS0_15wrapped_handlerINS_10io_service6strandESt5_BindIFSt7_Mem_fnIMN14ws_websocketpp9transport4asio10connectionINSI_6config11asio_client16transport_configEEEFvSt8functionIFvRKSt10error_codeEEST_EESt10shared_ptrISP_ESV_St12_PlaceholderILi1EEEENS0_26is_continuation_if_runningEEEED1Ev"
 "_ZN4asio6detail8write_opINS_19basic_stream_socketINS_2ip3tcpENS_21stream_socket_serviceIS4_EEEESt6vectorINS_12const_bufferESaIS9_EENS0_14transfer_all_tENS0_15wrapped_handlerINS_10io_service6strandESt5_BindIFSt7_Mem_fnIMN14ws_websocketpp9transport4asio10connectionINSI_6config15asio_tls_client16transport_configEEEFvSt8functionIFvRKSt10error_codeEEST_EESt10shared_ptrISP_ESV_St12_PlaceholderILi1EEEENS0_26is_continuation_if_runningEEEEclEST_yi"
 "_ZN4asio6detail8write_opINS_19basic_stream_socketINS_2ip3tcpENS_21stream_socket_serviceIS4_EEEESt6vectorINS_12const_bufferESaIS9_EENS0_14transfer_all_tENS0_15wrapped_handlerINS_10io_service6strandESt5_BindIFSt7_Mem_fnIMN14ws_websocketpp9transport4asio10connectionINSI_6config15asio_tls_client16transport_configEEEFvSt8functionIFvRKSt10error_codeEEST_EESt10shared_ptrISP_ESV_St12_PlaceholderILi1EEEENS0_26is_continuation_if_runningEEEED1Ev"
 "_ZN4asio6detail8write_opINS_3ssl6streamINS_19basic_stream_socketINS_2ip3tcpENS_21stream_socket_serviceIS6_EEEEEESt6vectorINS_12const_bufferESaISC_EENS0_14transfer_all_tENS0_15wrapped_handlerINS_10io_service6strandEN14ws_websocketpp9transport4asio20custom_alloc_handlerISt5_BindIFSt7_Mem_fnIMNSL_10connectionINSJ_6config15asio_tls_client16transport_configEEEFvSt8functionIFvRKSt10error_codeEESX_yEESt10shared_ptrIST_ESZ_St12_PlaceholderILi1EES15_ILi2EEEEEENS0_26is_continuation_if_runningEEEEclESX_yi"
 "_ZN4asio6detail8write_opINS_3ssl6streamINS_19basic_stream_socketINS_2ip3tcpENS_21stream_socket_serviceIS6_EEEEEESt6vectorINS_12const_bufferESaISC_EENS0_14transfer_all_tENS0_15wrapped_handlerINS_10io_service6strandEN14ws_websocketpp9transport4asio20custom_alloc_handlerISt5_BindIFSt7_Mem_fnIMNSL_10connectionINSJ_6config15asio_tls_client16transport_configEEEFvSt8functionIFvRKSt10error_codeEESX_yEESt10shared_ptrIST_ESZ_St12_PlaceholderILi1EES15_ILi2EEEEEENS0_26is_continuation_if_runningEEEED1Ev"
 "_ZN4asio6detail9win_mutexC1Ev"
 "_ZN4Rcpp10eval_errorC1ERKSs"
 "_ZN4Rcpp10eval_errorD0Ev"
 "_ZN4Rcpp10eval_errorD1Ev"
 "_ZN4Rcpp10RstreambufILb0EE4syncEv"
 "_ZN4Rcpp10RstreambufILb0EE6xsputnEPKcx"
 "_ZN4Rcpp10RstreambufILb0EE8overflowEi"
 "_ZN4Rcpp10RstreambufILb0EED0Ev"
 "_ZN4Rcpp10RstreambufILb0EED1Ev"
 "_ZN4Rcpp10RstreambufILb1EE4syncEv"
 "_ZN4Rcpp10RstreambufILb1EE6xsputnEPKcx"
 "_ZN4Rcpp10RstreambufILb1EE8overflowEi"
 "_ZN4Rcpp10RstreambufILb1EED0Ev"
 "_ZN4Rcpp10RstreambufILb1EED1Ev"
 "_ZN4Rcpp13Function_ImplINS_15PreserveStorageEEC1ERKS2_"
 "_ZN4Rcpp4growISsEEP7SEXPRECRKT_S2_"
 "_ZN4Rcpp4stopERKSs"
 "_ZN4Rcpp4stopIIEEEvPKcDpOT_"
 "_ZN4Rcpp6VectorILi16ENS_15PreserveStorageEEC1ERKS2_"
 "_ZN4Rcpp8RostreamILb0EED0Ev"
 "_ZN4Rcpp8RostreamILb0EED1Ev"
 "_ZN4Rcpp8RostreamILb1EED0Ev"
 "_ZN4Rcpp8RostreamILb1EED1Ev"
 "_ZN4Rcpp9exceptionC1EPKcb"
 "_ZN4Rcpp9exceptionD0Ev"
 "_ZN4Rcpp9exceptionD1Ev"
 "_ZN4Rcpp9Rcpp_evalEP7SEXPRECS1_"
 "_ZNK10tinyformat6detail9FormatArg5toIntEv"
 "_ZNK14ws_websocketpp10connectionINS_6config11asio_clientEE13get_processorEi"
 "_ZNK14ws_websocketpp10connectionINS_6config15asio_tls_clientEE13get_processorEi"
 "_ZNK14ws_websocketpp3uri13get_authorityEv"
 "_ZNK14ws_websocketpp3uri13get_host_portEv"
 "_ZNK14ws_websocketpp3uri3strEv"
 "_ZNK14ws_websocketpp4http6parser6parser11raw_headersEv"
 "_ZNK14ws_websocketpp4http6parser6parser19get_header_as_plistERKSsRSt6vectorISt4pairISsSt3mapISsSsSt4lessISsESaIS6_IS3_SsEEEESaISD_EE"
 "_ZNK14ws_websocketpp4http6parser7request3rawEv"
 "_ZNK14ws_websocketpp4http6parser8response3rawEv"
 "_ZNK14ws_websocketpp4http9exception4whatEv"
 "_ZNK14ws_websocketpp5error8category4nameEv"
 "_ZNK14ws_websocketpp5error8category7messageEi"
 "_ZNK14ws_websocketpp9exception4whatEv"
 "_ZNK14ws_websocketpp9processor5error18processor_category4nameEv"
 "_ZNK14ws_websocketpp9processor5error18processor_category7messageEi"
 "_ZNK14ws_websocketpp9processor6hybi00INS_6config11asio_clientEE10get_originERKNS_4http6parser7requestE"
 "_ZNK14ws_websocketpp9processor6hybi00INS_6config11asio_clientEE11get_versionEv"
 "_ZNK14ws_websocketpp9processor6hybi00INS_6config11asio_clientEE12prepare_pingERKSsSt10shared_ptrINS_14message_buffer7messageINS8_5alloc15con_msg_managerEEEE"
 "_ZNK14ws_websocketpp9processor6hybi00INS_6config11asio_clientEE12prepare_pongERKSsSt10shared_ptrINS_14message_buffer7messageINS8_5alloc15con_msg_managerEEEE"
 "_ZNK14ws_websocketpp9processor6hybi00INS_6config11asio_clientEE13prepare_closeEtRKSsSt10shared_ptrINS_14message_buffer7messageINS8_5alloc15con_msg_managerEEEE"
 "_ZNK14ws_websocketpp9processor6hybi00INS_6config11asio_clientEE17decode_client_keyERKSsPc"
 "_ZNK14ws_websocketpp9processor6hybi00INS_6config11asio_clientEE17process_handshakeERKNS_4http6parser7requestERKSsRNS6_8responseE"
 "_ZNK14ws_websocketpp9processor6hybi00INS_6config11asio_clientEE18validate_handshakeERKNS_4http6parser7requestE"
 "_ZNK14ws_websocketpp9processor6hybi00INS_6config11asio_clientEE24client_handshake_requestERNS_4http6parser7requestESt10shared_ptrINS_3uriEERKSt6vectorISsSaISsEE"
 "_ZNK14ws_websocketpp9processor6hybi00INS_6config11asio_clientEE34validate_server_handshake_responseERKNS_4http6parser7requestERNS6_8responseE"
 "_ZNK14ws_websocketpp9processor6hybi00INS_6config11asio_clientEE5readyEv"
 "_ZNK14ws_websocketpp9processor6hybi00INS_6config11asio_clientEE7get_rawERKNS_4http6parser8responseE"
 "_ZNK14ws_websocketpp9processor6hybi00INS_6config11asio_clientEE7get_uriERKNS_4http6parser7requestE"
 "_ZNK14ws_websocketpp9processor6hybi00INS_6config11asio_clientEE9get_errorEv"
 "_ZNK14ws_websocketpp9processor6hybi00INS_6config15asio_tls_clientEE10get_originERKNS_4http6parser7requestE"
 "_ZNK14ws_websocketpp9processor6hybi00INS_6config15asio_tls_clientEE11get_versionEv"
 "_ZNK14ws_websocketpp9processor6hybi00INS_6config15asio_tls_clientEE12prepare_pingERKSsSt10shared_ptrINS_14message_buffer7messageINS8_5alloc15con_msg_managerEEEE"
 "_ZNK14ws_websocketpp9processor6hybi00INS_6config15asio_tls_clientEE12prepare_pongERKSsSt10shared_ptrINS_14message_buffer7messageINS8_5alloc15con_msg_managerEEEE"
 "_ZNK14ws_websocketpp9processor6hybi00INS_6config15asio_tls_clientEE13prepare_closeEtRKSsSt10shared_ptrINS_14message_buffer7messageINS8_5alloc15con_msg_managerEEEE"
 "_ZNK14ws_websocketpp9processor6hybi00INS_6config15asio_tls_clientEE17decode_client_keyERKSsPc"
 "_ZNK14ws_websocketpp9processor6hybi00INS_6config15asio_tls_clientEE17process_handshakeERKNS_4http6parser7requestERKSsRNS6_8responseE"
 "_ZNK14ws_websocketpp9processor6hybi00INS_6config15asio_tls_clientEE18validate_handshakeERKNS_4http6parser7requestE"
 "_ZNK14ws_websocketpp9processor6hybi00INS_6config15asio_tls_clientEE24client_handshake_requestERNS_4http6parser7requestESt10shared_ptrINS_3uriEERKSt6vectorISsSaISsEE"
 "_ZNK14ws_websocketpp9processor6hybi00INS_6config15asio_tls_clientEE34validate_server_handshake_responseERKNS_4http6parser7requestERNS6_8responseE"
 "_ZNK14ws_websocketpp9processor6hybi00INS_6config15asio_tls_clientEE5readyEv"
 "_ZNK14ws_websocketpp9processor6hybi00INS_6config15asio_tls_clientEE7get_rawERKNS_4http6parser8responseE"
 "_ZNK14ws_websocketpp9processor6hybi00INS_6config15asio_tls_clientEE7get_uriERKNS_4http6parser7requestE"
 "_ZNK14ws_websocketpp9processor6hybi00INS_6config15asio_tls_clientEE9get_errorEv"
 "_ZNK14ws_websocketpp9processor6hybi07INS_6config11asio_clientEE11get_versionEv"
 "_ZNK14ws_websocketpp9processor6hybi07INS_6config11asio_clientEE24client_handshake_requestERNS_4http6parser7requestESt10shared_ptrINS_3uriEERKSt6vectorISsSaISsEE"
 "_ZNK14ws_websocketpp9processor6hybi07INS_6config15asio_tls_clientEE11get_versionEv"
 "_ZNK14ws_websocketpp9processor6hybi07INS_6config15asio_tls_clientEE24client_handshake_requestERNS_4http6parser7requestESt10shared_ptrINS_3uriEERKSt6vectorISsSaISsEE"
 "_ZNK14ws_websocketpp9processor6hybi08INS_6config11asio_clientEE10get_originERKNS_4http6parser7requestE"
 "_ZNK14ws_websocketpp9processor6hybi08INS_6config11asio_clientEE11get_versionEv"
 "_ZNK14ws_websocketpp9processor6hybi08INS_6config11asio_clientEE24client_handshake_requestERNS_4http6parser7requestESt10shared_ptrINS_3uriEERKSt6vectorISsSaISsEE"
 "_ZNK14ws_websocketpp9processor6hybi08INS_6config15asio_tls_clientEE10get_originERKNS_4http6parser7requestE"
 "_ZNK14ws_websocketpp9processor6hybi08INS_6config15asio_tls_clientEE11get_versionEv"
 "_ZNK14ws_websocketpp9processor6hybi08INS_6config15asio_tls_clientEE24client_handshake_requestERNS_4http6parser7requestESt10shared_ptrINS_3uriEERKSt6vectorISsSaISsEE"
 "_ZNK14ws_websocketpp9processor6hybi13INS_6config11asio_clientEE10get_originERKNS_4http6parser7requestE"
 "_ZNK14ws_websocketpp9processor6hybi13INS_6config11asio_clientEE11get_versionEv"
 "_ZNK14ws_websocketpp9processor6hybi13INS_6config11asio_clientEE12prepare_pingERKSsSt10shared_ptrINS_14message_buffer7messageINS8_5alloc15con_msg_managerEEEE"
 "_ZNK14ws_websocketpp9processor6hybi13INS_6config11asio_clientEE12prepare_pongERKSsSt10shared_ptrINS_14message_buffer7messageINS8_5alloc15con_msg_managerEEEE"
 "_ZNK14ws_websocketpp9processor6hybi13INS_6config11asio_clientEE13prepare_closeEtRKSsSt10shared_ptrINS_14message_buffer7messageINS8_5alloc15con_msg_managerEEEE"
 "_ZNK14ws_websocketpp9processor6hybi13INS_6config11asio_clientEE15prepare_controlENS_5frame6opcode5valueERKSsSt10shared_ptrINS_14message_buffer7messageINSB_5alloc15con_msg_managerEEEE"
 "_ZNK14ws_websocketpp9processor6hybi13INS_6config11asio_clientEE16get_bytes_neededEv"
 "_ZNK14ws_websocketpp9processor6hybi13INS_6config11asio_clientEE17process_handshakeERKNS_4http6parser7requestERKSsRNS6_8responseE"
 "_ZNK14ws_websocketpp9processor6hybi13INS_6config11asio_clientEE18validate_handshakeERKNS_4http6parser7requestE"
 "_ZNK14ws_websocketpp9processor6hybi13INS_6config11asio_clientEE24client_handshake_requestERNS_4http6parser7requestESt10shared_ptrINS_3uriEERKSt6vectorISsSaISsEE"
 "_ZNK14ws_websocketpp9processor6hybi13INS_6config11asio_clientEE34validate_server_handshake_responseERKNS_4http6parser7requestERNS6_8responseE"
 "_ZNK14ws_websocketpp9processor6hybi13INS_6config11asio_clientEE5readyEv"
 "_ZNK14ws_websocketpp9processor6hybi13INS_6config11asio_clientEE7get_rawERKNS_4http6parser8responseE"
 "_ZNK14ws_websocketpp9processor6hybi13INS_6config11asio_clientEE7get_uriERKNS_4http6parser7requestE"
 "_ZNK14ws_websocketpp9processor6hybi13INS_6config11asio_clientEE9get_errorEv"
 "_ZNK14ws_websocketpp9processor6hybi13INS_6config15asio_tls_clientEE10get_originERKNS_4http6parser7requestE"
 "_ZNK14ws_websocketpp9processor6hybi13INS_6config15asio_tls_clientEE11get_versionEv"
 "_ZNK14ws_websocketpp9processor6hybi13INS_6config15asio_tls_clientEE12prepare_pingERKSsSt10shared_ptrINS_14message_buffer7messageINS8_5alloc15con_msg_managerEEEE"
 "_ZNK14ws_websocketpp9processor6hybi13INS_6config15asio_tls_clientEE12prepare_pongERKSsSt10shared_ptrINS_14message_buffer7messageINS8_5alloc15con_msg_managerEEEE"
 "_ZNK14ws_websocketpp9processor6hybi13INS_6config15asio_tls_clientEE13prepare_closeEtRKSsSt10shared_ptrINS_14message_buffer7messageINS8_5alloc15con_msg_managerEEEE"
 "_ZNK14ws_websocketpp9processor6hybi13INS_6config15asio_tls_clientEE15prepare_controlENS_5frame6opcode5valueERKSsSt10shared_ptrINS_14message_buffer7messageINSB_5alloc15con_msg_managerEEEE"
 "_ZNK14ws_websocketpp9processor6hybi13INS_6config15asio_tls_clientEE16get_bytes_neededEv"
 "_ZNK14ws_websocketpp9processor6hybi13INS_6config15asio_tls_clientEE17process_handshakeERKNS_4http6parser7requestERKSsRNS6_8responseE"
 "_ZNK14ws_websocketpp9processor6hybi13INS_6config15asio_tls_clientEE18validate_handshakeERKNS_4http6parser7requestE"
 "_ZNK14ws_websocketpp9processor6hybi13INS_6config15asio_tls_clientEE24client_handshake_requestERNS_4http6parser7requestESt10shared_ptrINS_3uriEERKSt6vectorISsSaISsEE"
 "_ZNK14ws_websocketpp9processor6hybi13INS_6config15asio_tls_clientEE34validate_server_handshake_responseERKNS_4http6parser7requestERNS6_8responseE"
 "_ZNK14ws_websocketpp9processor6hybi13INS_6config15asio_tls_clientEE5readyEv"
 "_ZNK14ws_websocketpp9processor6hybi13INS_6config15asio_tls_clientEE7get_rawERKNS_4http6parser8responseE"
 "_ZNK14ws_websocketpp9processor6hybi13INS_6config15asio_tls_clientEE7get_uriERKNS_4http6parser7requestE"
 "_ZNK14ws_websocketpp9processor6hybi13INS_6config15asio_tls_clientEE9get_errorEv"
 "_ZNK14ws_websocketpp9processor9processorINS_6config11asio_clientEE16get_bytes_neededEv"
 "_ZNK14ws_websocketpp9processor9processorINS_6config11asio_clientEE23has_permessage_compressEv"
 "_ZNK14ws_websocketpp9processor9processorINS_6config15asio_tls_clientEE16get_bytes_neededEv"
 "_ZNK14ws_websocketpp9processor9processorINS_6config15asio_tls_clientEE23has_permessage_compressEv"
 "_ZNK14ws_websocketpp9transport4asio10connectionINS_6config11asio_client16transport_configEE19get_remote_endpointEv"
 "_ZNK14ws_websocketpp9transport4asio10connectionINS_6config15asio_tls_client16transport_configEE19get_remote_endpointEv"
 "_ZNK14ws_websocketpp9transport4asio10tls_socket10connection19get_remote_endpointERSt10error_code"
 "_ZNK14ws_websocketpp9transport4asio12basic_socket10connection19get_remote_endpointERSt10error_code"
 "_ZNK14ws_websocketpp9transport4asio5error8category4nameEv"
 "_ZNK14ws_websocketpp9transport4asio5error8category7messageEi"
 "_ZNK14ws_websocketpp9transport4asio6socket15socket_category4nameEv"
 "_ZNK14ws_websocketpp9transport4asio6socket15socket_category7messageEi"
 "_ZNK14ws_websocketpp9transport5error8category4nameEv"
 "_ZNK14ws_websocketpp9transport5error8category7messageEi"
 "_ZNK4asio2ip16bad_address_cast4whatEv"
 "_ZNK4asio2ip6detail8endpoint9to_stringERSt10error_code"
 "_ZNK4asio3ssl6detail6engine14map_error_codeERSt10error_code"
 "_ZNK4asio5error6detail12ssl_category4nameEv"
 "_ZNK4asio5error6detail12ssl_category7messageEi"
 "_ZNK4asio5error6detail13misc_category4nameEv"
 "_ZNK4asio5error6detail13misc_category7messageEi"
 "_ZNK4asio6detail11timer_queueINS0_18chrono_time_traitsINSt6chrono3_V212steady_clockENS_11wait_traitsIS5_EEEEE18wait_duration_msecEl"
 "_ZNK4asio6detail11timer_queueINS0_18chrono_time_traitsINSt6chrono3_V212steady_clockENS_11wait_traitsIS5_EEEEE18wait_duration_usecEl"
 "_ZNK4asio6detail11timer_queueINS0_18chrono_time_traitsINSt6chrono3_V212steady_clockENS_11wait_traitsIS5_EEEEE5emptyEv"
 "_ZNK4asio6detail15system_category4nameEv"
 "_ZNK4asio6detail15system_category7messageEi"
 "_ZNK4asio6detail26consuming_buffers_iteratorINS_12const_bufferEN9__gnu_cxx17__normal_iteratorIPKS2_St6vectorIS2_SaIS2_EEEEE5equalERKSB_"
 "_ZNK4Rcpp10eval_error4whatEv"
 "_ZNK4Rcpp9exception4whatEv"
 "_ZNKSt5ctypeIcE8do_widenEc"
 "_ZNKSt7_Mem_fnIMN14ws_websocketpp9transport4asio8endpointINS0_6config11asio_client16transport_configEEEFvSt10shared_ptrINS2_10connectionIS6_EEES8_IN4asio20basic_waitable_timerINSt6chrono3_V212steady_clockENSC_11wait_traitsISG_EENSC_22waitable_timer_serviceISG_SI_EEEEESt8functionIFvRKSt10error_codeEESQ_EEclIIRSB_RSM_RSS_SQ_EvEEvPS7_DpOT_"
 "_ZNKSt7_Mem_fnIMN14ws_websocketpp9transport4asio8endpointINS0_6config15asio_tls_client16transport_configEEEFvSt10shared_ptrINS2_10connectionIS6_EEES8_IN4asio20basic_waitable_timerINSt6chrono3_V212steady_clockENSC_11wait_traitsISG_EENSC_22waitable_timer_serviceISG_SI_EEEEESt8functionIFvRKSt10error_codeEESQ_EEclIIRSB_RSM_RSS_SQ_EvEEvPS7_DpOT_"
 "_ZNKSt8_Rb_treeISsSt4pairIKSsSsESt10_Select1stIS2_EN14ws_websocketpp7utility7ci_lessESaIS2_EE4findERS1_"
 "_ZNKSt8functionIFbSt8weak_ptrIvEEEclES1_"
 "_ZNKSt8functionIFbSt8weak_ptrIvESsEEclES1_Ss"
 "_ZNKSt8functionIFvRKSt10error_codeEEclES2_"
 "_ZNKSt8functionIFvRKSt10error_codeyEEclES2_y"
 "_ZNKSt8functionIFvSt8weak_ptrIvEEEclES1_"
 "_ZNKSt8functionIFvSt8weak_ptrIvESsEEclES1_Ss"
 "_ZNKSt8functionIFvSt8weak_ptrIvESt10shared_ptrIN14ws_websocketpp14message_buffer7messageINS4_5alloc15con_msg_managerEEEEEEclES1_S9_"
 "_ZNKSt8functionIFvvEEclEv"
 "_ZNSt10_List_baseISt4pairIyN4asio6detail16reactor_op_queueIyE11mapped_typeEESaIS6_EE8_M_clearEv"
 "_ZNSt11_Deque_baseISt10shared_ptrIN14ws_websocketpp14message_buffer7messageINS2_5alloc15con_msg_managerEEEESaIS7_EE17_M_initialize_mapEy"
 "_ZNSt11_Tuple_implILy0EISt10shared_ptrI12WSConnectionEN4Rcpp13Function_ImplINS3_15PreserveStorageEEESt12_PlaceholderILi1EEEED2Ev"
 "_ZNSt11_Tuple_implILy0EISt10shared_ptrIN14ws_websocketpp9transport4asio10connectionINS1_6config11asio_client16transport_configEEEES0_IN4asio20basic_waitable_timerINSt6chrono3_V212steady_clockENSA_11wait_traitsISE_EENSA_22waitable_timer_serviceISE_SG_EEEEESt8functionIFvRKSt10error_codeEESt12_PlaceholderILi1EEEED2Ev"
 "_ZNSt11_Tuple_implILy0EISt10shared_ptrIN14ws_websocketpp9transport4asio10connectionINS1_6config11asio_client16transport_configEEEESt8functionIFvRKSt10error_codeEESt12_PlaceholderILi1EEEED2Ev"
 "_ZNSt11_Tuple_implILy0EISt10shared_ptrIN14ws_websocketpp9transport4asio10connectionINS1_6config11asio_client16transport_configEEEESt8functionIFvRKSt10error_codeEESt12_PlaceholderILi1EESG_ILi2EEEED2Ev"
 "_ZNSt11_Tuple_implILy0EISt10shared_ptrIN14ws_websocketpp9transport4asio10connectionINS1_6config11asio_client16transport_configEEEESt8functionIFvRKSt10error_codeyEESt12_PlaceholderILi1EESG_ILi2EEEED2Ev"
 "_ZNSt11_Tuple_implILy0EISt10shared_ptrIN14ws_websocketpp9transport4asio10connectionINS1_6config15asio_tls_client16transport_configEEEES0_IN4asio20basic_waitable_timerINSt6chrono3_V212steady_clockENSA_11wait_traitsISE_EENSA_22waitable_timer_serviceISE_SG_EEEEESt8functionIFvRKSt10error_codeEESt12_PlaceholderILi1EEEED2Ev"
 "_ZNSt11_Tuple_implILy0EISt10shared_ptrIN14ws_websocketpp9transport4asio10connectionINS1_6config15asio_tls_client16transport_configEEEESt8functionIFvRKSt10error_codeEESt12_PlaceholderILi1EEEED2Ev"
 "_ZNSt11_Tuple_implILy0EISt10shared_ptrIN14ws_websocketpp9transport4asio10connectionINS1_6config15asio_tls_client16transport_configEEEESt8functionIFvRKSt10error_codeEESt12_PlaceholderILi1EESG_ILi2EEEED2Ev"
 "_ZNSt11_Tuple_implILy0EISt10shared_ptrIN14ws_websocketpp9transport4asio10connectionINS1_6config15asio_tls_client16transport_configEEEESt8functionIFvRKSt10error_codeyEESt12_PlaceholderILi1EESG_ILi2EEEED2Ev"
 "_ZNSt11_Tuple_implILy0EISt10shared_ptrIN14ws_websocketpp9transport4asio10tls_socket10connectionEESt8functionIFvRKSt10error_codeEESt12_PlaceholderILi1EEEED2Ev"
 "_ZNSt11_Tuple_implILy1EISt10shared_ptrIN14ws_websocketpp9transport4asio10connectionINS1_6config11asio_client16transport_configEEEES0_IN4asio20basic_waitable_timerINSt6chrono3_V212steady_clockENSA_11wait_traitsISE_EENSA_22waitable_timer_serviceISE_SG_EEEEESt8functionIFvRKSt10error_codeEESt12_PlaceholderILi1EEEED2Ev"
 "_ZNSt11_Tuple_implILy1EISt10shared_ptrIN14ws_websocketpp9transport4asio10connectionINS1_6config11asio_client16transport_configEEEES0_IN4asio20basic_waitable_timerINSt6chrono3_V212steady_clockENSA_11wait_traitsISE_EENSA_22waitable_timer_serviceISE_SG_EEEEESt8functionIFvRKSt10error_codeEESt12_PlaceholderILi1EESR_ILi2EEEED2Ev"
 "_ZNSt11_Tuple_implILy1EISt10shared_ptrIN14ws_websocketpp9transport4asio10connectionINS1_6config15asio_tls_client16transport_configEEEES0_IN4asio20basic_waitable_timerINSt6chrono3_V212steady_clockENSA_11wait_traitsISE_EENSA_22waitable_timer_serviceISE_SG_EEEEESt8functionIFvRKSt10error_codeEESt12_PlaceholderILi1EEEED2Ev"
 "_ZNSt11_Tuple_implILy1EISt10shared_ptrIN14ws_websocketpp9transport4asio10connectionINS1_6config15asio_tls_client16transport_configEEEES0_IN4asio20basic_waitable_timerINSt6chrono3_V212steady_clockENSA_11wait_traitsISE_EENSA_22waitable_timer_serviceISE_SG_EEEEESt8functionIFvRKSt10error_codeEESt12_PlaceholderILi1EESR_ILi2EEEED2Ev"
 "_ZNSt11_Tuple_implILy1EISt10shared_ptrIN4asio20basic_waitable_timerINSt6chrono3_V212steady_clockENS1_11wait_traitsIS5_EENS1_22waitable_timer_serviceIS5_S7_EEEEESt8functionIFvRKSt10error_codeEESt12_PlaceholderILi1EEEED2Ev"
 "_ZNSt11logic_errorC2ERKS_"
 "_ZNSt12__shared_ptrIN4asio2ip14basic_resolverINS1_3tcpENS1_16resolver_serviceIS3_EEEELN9__gnu_cxx12_Lock_policyE2EEC2ISaIS6_EISt17reference_wrapperINS0_10io_serviceEEEEESt19_Sp_make_shared_tagRKT_DpOT0_"
 "_ZNSt12system_errorC1ESt10error_codeRKSs"
 "_ZNSt14__shared_countILN9__gnu_cxx12_Lock_policyE2EEaSERKS2_"
 "_ZNSt14_Function_base13_Base_managerISt5_BindIFPFSt10shared_ptrIN4asio3ssl7contextEEvEvEEE10_M_managerERSt9_Any_dataRKSC_St18_Manager_operation"
 "_ZNSt14_Function_base13_Base_managerISt5_BindIFPFvN4Rcpp13Function_ImplINS2_15PreserveStorageEEESt8weak_ptrIvESt10shared_ptrIN14ws_websocketpp14message_buffer7messageINSA_5alloc15con_msg_managerEEEEES5_St12_PlaceholderILi1EESI_ILi2EEEEE10_M_managerERSt9_Any_dataRKSO_St18_Manager_operation"
 "_ZNSt14_Function_base13_Base_managerISt5_BindIFPFvSt10shared_ptrI12WSConnectionEN4Rcpp13Function_ImplINS5_15PreserveStorageEEESt8weak_ptrIvEES4_S8_St12_PlaceholderILi1EEEEE10_M_managerERSt9_Any_dataRKSI_St18_Manager_operation"
 "_ZNSt14_Function_base13_Base_managerISt5_BindIFSt7_Mem_fnIMN14ws_websocketpp10connectionINS3_6config11asio_clientEEEFvNS7_16terminate_statusERKSt10error_codeEESt10shared_ptrIS7_ES8_St12_PlaceholderILi1EEEEE10_M_managerERSt9_Any_dataRKSM_St18_Manager_operation"
 "_ZNSt14_Function_base13_Base_managerISt5_BindIFSt7_Mem_fnIMN14ws_websocketpp10connectionINS3_6config11asio_clientEEEFvRKSt10error_codeEEPS7_St12_PlaceholderILi1EEEEE10_M_managerERSt9_Any_dataRKSK_St18_Manager_operation"
 "_ZNSt14_Function_base13_Base_managerISt5_BindIFSt7_Mem_fnIMN14ws_websocketpp10connectionINS3_6config11asio_clientEEEFvRKSt10error_codeEESt10shared_ptrIS7_ESt12_PlaceholderILi1EEEEE10_M_managerERSt9_Any_dataRKSL_St18_Manager_operation"
 "_ZNSt14_Function_base13_Base_managerISt5_BindIFSt7_Mem_fnIMN14ws_websocketpp10connectionINS3_6config11asio_clientEEEFvRKSt10error_codeyEEPS7_St12_PlaceholderILi1EESF_ILi2EEEEE10_M_managerERSt9_Any_dataRKSL_St18_Manager_operation"
 "_ZNSt14_Function_base13_Base_managerISt5_BindIFSt7_Mem_fnIMN14ws_websocketpp10connectionINS3_6config11asio_clientEEEFvRKSt10error_codeyEESt10shared_ptrIS7_ESt12_PlaceholderILi1EESG_ILi2EEEEE10_M_managerERSt9_Any_dataRKSM_St18_Manager_operation"
 "_ZNSt14_Function_base13_Base_managerISt5_BindIFSt7_Mem_fnIMN14ws_websocketpp10connectionINS3_6config11asio_clientEEEFvvEESt10shared_ptrIS7_EEEE10_M_managerERSt9_Any_dataRKSG_St18_Manager_operation"
 "_ZNSt14_Function_base13_Base_managerISt5_BindIFSt7_Mem_fnIMN14ws_websocketpp10connectionINS3_6config15asio_tls_clientEEEFvNS7_16terminate_statusERKSt10error_codeEESt10shared_ptrIS7_ES8_St12_PlaceholderILi1EEEEE10_M_managerERSt9_Any_dataRKSM_St18_Manager_operation"
 "_ZNSt14_Function_base13_Base_managerISt5_BindIFSt7_Mem_fnIMN14ws_websocketpp10connectionINS3_6config15asio_tls_clientEEEFvRKSt10error_codeEEPS7_St12_PlaceholderILi1EEEEE10_M_managerERSt9_Any_dataRKSK_St18_Manager_operation"
 "_ZNSt14_Function_base13_Base_managerISt5_BindIFSt7_Mem_fnIMN14ws_websocketpp10connectionINS3_6config15asio_tls_clientEEEFvRKSt10error_codeEESt10shared_ptrIS7_ESt12_PlaceholderILi1EEEEE10_M_managerERSt9_Any_dataRKSL_St18_Manager_operation"
 "_ZNSt14_Function_base13_Base_managerISt5_BindIFSt7_Mem_fnIMN14ws_websocketpp10connectionINS3_6config15asio_tls_clientEEEFvRKSt10error_codeyEEPS7_St12_PlaceholderILi1EESF_ILi2EEEEE10_M_managerERSt9_Any_dataRKSL_St18_Manager_operation"
 "_ZNSt14_Function_base13_Base_managerISt5_BindIFSt7_Mem_fnIMN14ws_websocketpp10connectionINS3_6config15asio_tls_clientEEEFvRKSt10error_codeyEESt10shared_ptrIS7_ESt12_PlaceholderILi1EESG_ILi2EEEEE10_M_managerERSt9_Any_dataRKSM_St18_Manager_operation"
 "_ZNSt14_Function_base13_Base_managerISt5_BindIFSt7_Mem_fnIMN14ws_websocketpp10connectionINS3_6config15asio_tls_clientEEEFvvEESt10shared_ptrIS7_EEEE10_M_managerERSt9_Any_dataRKSG_St18_Manager_operation"
 "_ZNSt14_Function_base13_Base_managerISt5_BindIFSt7_Mem_fnIMN14ws_websocketpp6clientINS3_6config11asio_clientEEEFvSt10shared_ptrINS3_10connectionIS6_EEERKSt10error_codeEEPS7_SB_St12_PlaceholderILi1EEEEE10_M_managerERSt9_Any_dataRKSO_St18_Manager_operation"
 "_ZNSt14_Function_base13_Base_managerISt5_BindIFSt7_Mem_fnIMN14ws_websocketpp6clientINS3_6config15asio_tls_clientEEEFvSt10shared_ptrINS3_10connectionIS6_EEERKSt10error_codeEEPS7_SB_St12_PlaceholderILi1EEEEE10_M_managerERSt9_Any_dataRKSO_St18_Manager_operation"
 "_ZNSt14_Function_base13_Base_managerISt5_BindIFSt7_Mem_fnIMN14ws_websocketpp9transport4asio10connectionINS3_6config11asio_client16transport_configEEEFvSt10shared_ptrIN4asio20basic_waitable_timerINSt6chrono3_V212steady_clockENSC_11wait_traitsISG_EENSC_22waitable_timer_serviceISG_SI_EEEEESt8functionIFvRKSt10error_codeEESQ_EESB_ISA_ESM_SS_St12_PlaceholderILi1EEEEE10_M_managerERSt9_Any_dataRKS12_St18_Manager_operation"
 "_ZNSt14_Function_base13_Base_managerISt5_BindIFSt7_Mem_fnIMN14ws_websocketpp9transport4asio10connectionINS3_6config11asio_client16transport_configEEEFvSt8functionIFvRKSt10error_codeEESE_EESt10shared_ptrISA_ESG_St12_PlaceholderILi1EEEEE10_M_managerERSt9_Any_dataRKSR_St18_Manager_operation"
 "_ZNSt14_Function_base13_Base_managerISt5_BindIFSt7_Mem_fnIMN14ws_websocketpp9transport4asio10connectionINS3_6config15asio_tls_client16transport_configEEEFvSt10shared_ptrIN4asio20basic_waitable_timerINSt6chrono3_V212steady_clockENSC_11wait_traitsISG_EENSC_22waitable_timer_serviceISG_SI_EEEEESt8functionIFvRKSt10error_codeEESQ_EESB_ISA_ESM_SS_St12_PlaceholderILi1EEEEE10_M_managerERSt9_Any_dataRKS12_St18_Manager_operation"
 "_ZNSt14_Function_base13_Base_managerISt5_BindIFSt7_Mem_fnIMN14ws_websocketpp9transport4asio10connectionINS3_6config15asio_tls_client16transport_configEEEFvSt8functionIFvRKSt10error_codeEESE_EESt10shared_ptrISA_ESG_St12_PlaceholderILi1EEEEE10_M_managerERSt9_Any_dataRKSR_St18_Manager_operation"
 "_ZNSt14_Function_base13_Base_managerISt5_BindIFSt7_Mem_fnIMN14ws_websocketpp9transport4asio8endpointINS3_6config11asio_client16transport_configEEEFvSt10shared_ptrIN4asio20basic_waitable_timerINSt6chrono3_V212steady_clockENSC_11wait_traitsISG_EENSC_22waitable_timer_serviceISG_SI_EEEEESt8functionIFvRKSt10error_codeEESQ_EEPSA_SM_SS_St12_PlaceholderILi1EEEEE10_M_managerERSt9_Any_dataRKS12_St18_Manager_operation"
 "_ZNSt14_Function_base13_Base_managerISt5_BindIFSt7_Mem_fnIMN14ws_websocketpp9transport4asio8endpointINS3_6config11asio_client16transport_configEEEFvSt10shared_ptrINS5_10connectionIS9_EEESB_IN4asio20basic_waitable_timerINSt6chrono3_V212steady_clockENSF_11wait_traitsISJ_EENSF_22waitable_timer_serviceISJ_SL_EEEEESt8functionIFvRKSt10error_codeEEST_EEPSA_SE_SP_SV_St12_PlaceholderILi1EEEEE10_M_managerERSt9_Any_dataRKS15_St18_Manager_operation"
 "_ZNSt14_Function_base13_Base_managerISt5_BindIFSt7_Mem_fnIMN14ws_websocketpp9transport4asio8endpointINS3_6config15asio_tls_client16transport_configEEEFvSt10shared_ptrIN4asio20basic_waitable_timerINSt6chrono3_V212steady_clockENSC_11wait_traitsISG_EENSC_22waitable_timer_serviceISG_SI_EEEEESt8functionIFvRKSt10error_codeEESQ_EEPSA_SM_SS_St12_PlaceholderILi1EEEEE10_M_managerERSt9_Any_dataRKS12_St18_Manager_operation"
 "_ZNSt14_Function_base13_Base_managerISt5_BindIFSt7_Mem_fnIMN14ws_websocketpp9transport4asio8endpointINS3_6config15asio_tls_client16transport_configEEEFvSt10shared_ptrINS5_10connectionIS9_EEESB_IN4asio20basic_waitable_timerINSt6chrono3_V212steady_clockENSF_11wait_traitsISJ_EENSF_22waitable_timer_serviceISJ_SL_EEEEESt8functionIFvRKSt10error_codeEEST_EEPSA_SE_SP_SV_St12_PlaceholderILi1EEEEE10_M_managerERSt9_Any_dataRKS15_St18_Manager_operation"
 "_ZNSt15_Sp_counted_ptrIPN14ws_websocketpp14message_buffer5alloc15con_msg_managerINS1_7messageIS3_EEEELN9__gnu_cxx12_Lock_policyE2EE10_M_destroyEv"
 "_ZNSt15_Sp_counted_ptrIPN14ws_websocketpp14message_buffer5alloc15con_msg_managerINS1_7messageIS3_EEEELN9__gnu_cxx12_Lock_policyE2EE10_M_disposeEv"
 "_ZNSt15_Sp_counted_ptrIPN14ws_websocketpp14message_buffer5alloc15con_msg_managerINS1_7messageIS3_EEEELN9__gnu_cxx12_Lock_policyE2EE14_M_get_deleterERKSt9type_info"
 "_ZNSt15_Sp_counted_ptrIPN14ws_websocketpp14message_buffer5alloc15con_msg_managerINS1_7messageIS3_EEEELN9__gnu_cxx12_Lock_policyE2EED0Ev"
 "_ZNSt15_Sp_counted_ptrIPN14ws_websocketpp14message_buffer5alloc15con_msg_managerINS1_7messageIS3_EEEELN9__gnu_cxx12_Lock_policyE2EED1Ev"
 "_ZNSt15_Sp_counted_ptrIPN4asio3ssl6detail17openssl_init_base7do_initELN9__gnu_cxx12_Lock_policyE2EE10_M_destroyEv"
 "_ZNSt15_Sp_counted_ptrIPN4asio3ssl6detail17openssl_init_base7do_initELN9__gnu_cxx12_Lock_policyE2EE10_M_disposeEv"
 "_ZNSt15_Sp_counted_ptrIPN4asio3ssl6detail17openssl_init_base7do_initELN9__gnu_cxx12_Lock_policyE2EE14_M_get_deleterERKSt9type_info"
 "_ZNSt15_Sp_counted_ptrIPN4asio3ssl6detail17openssl_init_base7do_initELN9__gnu_cxx12_Lock_policyE2EED0Ev"
 "_ZNSt15_Sp_counted_ptrIPN4asio3ssl6detail17openssl_init_base7do_initELN9__gnu_cxx12_Lock_policyE2EED1Ev"
 "_ZNSt15_Sp_counted_ptrIPN4asio6detail9win_mutexELN9__gnu_cxx12_Lock_policyE2EE10_M_destroyEv"
 "_ZNSt15_Sp_counted_ptrIPN4asio6detail9win_mutexELN9__gnu_cxx12_Lock_policyE2EE10_M_disposeEv"
 "_ZNSt15_Sp_counted_ptrIPN4asio6detail9win_mutexELN9__gnu_cxx12_Lock_policyE2EE14_M_get_deleterERKSt9type_info"
 "_ZNSt15_Sp_counted_ptrIPN4asio6detail9win_mutexELN9__gnu_cxx12_Lock_policyE2EED0Ev"
 "_ZNSt15_Sp_counted_ptrIPN4asio6detail9win_mutexELN9__gnu_cxx12_Lock_policyE2EED1Ev"
 "_ZNSt15_Sp_counted_ptrIPSt6vectorIN4asio2ip20basic_resolver_entryINS2_3tcpEEESaIS5_EELN9__gnu_cxx12_Lock_policyE2EE10_M_destroyEv"
 "_ZNSt15_Sp_counted_ptrIPSt6vectorIN4asio2ip20basic_resolver_entryINS2_3tcpEEESaIS5_EELN9__gnu_cxx12_Lock_policyE2EE10_M_disposeEv"
 "_ZNSt15_Sp_counted_ptrIPSt6vectorIN4asio2ip20basic_resolver_entryINS2_3tcpEEESaIS5_EELN9__gnu_cxx12_Lock_policyE2EE14_M_get_deleterERKSt9type_info"
 "_ZNSt15_Sp_counted_ptrIPSt6vectorIN4asio2ip20basic_resolver_entryINS2_3tcpEEESaIS5_EELN9__gnu_cxx12_Lock_policyE2EED0Ev"
 "_ZNSt15_Sp_counted_ptrIPSt6vectorIN4asio2ip20basic_resolver_entryINS2_3tcpEEESaIS5_EELN9__gnu_cxx12_Lock_policyE2EED1Ev"
 "_ZNSt15basic_stringbufIcSt11char_traitsIcESaIcEED1Ev"
 "_ZNSt16_Sp_counted_baseILN9__gnu_cxx12_Lock_policyE2EE10_M_destroyEv"
 "_ZNSt16_Sp_counted_baseILN9__gnu_cxx12_Lock_policyE2EE10_M_releaseEv"
 "_ZNSt16_Sp_counted_baseILN9__gnu_cxx12_Lock_policyE2EE15_M_add_ref_lockEv"
 "_ZNSt16_Sp_counted_baseILN9__gnu_cxx12_Lock_policyE2EE15_M_weak_releaseEv"
 "_ZNSt17_Function_handlerIFSt10shared_ptrIN4asio3ssl7contextEESt8weak_ptrIvEESt5_BindIFPFS4_vEvEEE9_M_invokeERKSt9_Any_dataS6_"
 "_ZNSt17_Function_handlerIFvRKSt10error_codeESt5_BindIFSt7_Mem_fnIMN14ws_websocketpp10connectionINS6_6config11asio_clientEEEFvNSA_16terminate_statusES2_EESt10shared_ptrISA_ESB_St12_PlaceholderILi1EEEEE9_M_invokeERKSt9_Any_dataS2_"
 "_ZNSt17_Function_handlerIFvRKSt10error_codeESt5_BindIFSt7_Mem_fnIMN14ws_websocketpp10connectionINS6_6config11asio_clientEEEFvS2_EEPSA_St12_PlaceholderILi1EEEEE9_M_invokeERKSt9_Any_dataS2_"
 "_ZNSt17_Function_handlerIFvRKSt10error_codeESt5_BindIFSt7_Mem_fnIMN14ws_websocketpp10connectionINS6_6config11asio_clientEEEFvS2_EESt10shared_ptrISA_ESt12_PlaceholderILi1EEEEE9_M_invokeERKSt9_Any_dataS2_"
 "_ZNSt17_Function_handlerIFvRKSt10error_codeESt5_BindIFSt7_Mem_fnIMN14ws_websocketpp10connectionINS6_6config15asio_tls_clientEEEFvNSA_16terminate_statusES2_EESt10shared_ptrISA_ESB_St12_PlaceholderILi1EEEEE9_M_invokeERKSt9_Any_dataS2_"
 "_ZNSt17_Function_handlerIFvRKSt10error_codeESt5_BindIFSt7_Mem_fnIMN14ws_websocketpp10connectionINS6_6config15asio_tls_clientEEEFvS2_EEPSA_St12_PlaceholderILi1EEEEE9_M_invokeERKSt9_Any_dataS2_"
 "_ZNSt17_Function_handlerIFvRKSt10error_codeESt5_BindIFSt7_Mem_fnIMN14ws_websocketpp10connectionINS6_6config15asio_tls_clientEEEFvS2_EESt10shared_ptrISA_ESt12_PlaceholderILi1EEEEE9_M_invokeERKSt9_Any_dataS2_"
 "_ZNSt17_Function_handlerIFvRKSt10error_codeESt5_BindIFSt7_Mem_fnIMN14ws_websocketpp6clientINS6_6config11asio_clientEEEFvSt10shared_ptrINS6_10connectionIS9_EEES2_EEPSA_SE_St12_PlaceholderILi1EEEEE9_M_invokeERKSt9_Any_dataS2_"
 "_ZNSt17_Function_handlerIFvRKSt10error_codeESt5_BindIFSt7_Mem_fnIMN14ws_websocketpp6clientINS6_6config15asio_tls_clientEEEFvSt10shared_ptrINS6_10connectionIS9_EEES2_EEPSA_SE_St12_PlaceholderILi1EEEEE9_M_invokeERKSt9_Any_dataS2_"
 "_ZNSt17_Function_handlerIFvRKSt10error_codeESt5_BindIFSt7_Mem_fnIMN14ws_websocketpp9transport4asio10connectionINS6_6config11asio_client16transport_configEEEFvSt10shared_ptrIN4asio20basic_waitable_timerINSt6chrono3_V212steady_clockENSF_11wait_traitsISJ_EENSF_22waitable_timer_serviceISJ_SL_EEEEESt8functionIS3_ES2_EESE_ISD_ESP_SR_St12_PlaceholderILi1EEEEE9_M_invokeERKSt9_Any_dataS2_"
 "_ZNSt17_Function_handlerIFvRKSt10error_codeESt5_BindIFSt7_Mem_fnIMN14ws_websocketpp9transport4asio10connectionINS6_6config11asio_client16transport_configEEEFvSt8functionIS3_ES2_EESt10shared_ptrISD_ESF_St12_PlaceholderILi1EEEEE9_M_invokeERKSt9_Any_dataS2_"
 "_ZNSt17_Function_handlerIFvRKSt10error_codeESt5_BindIFSt7_Mem_fnIMN14ws_websocketpp9transport4asio10connectionINS6_6config15asio_tls_client16transport_configEEEFvSt10shared_ptrIN4asio20basic_waitable_timerINSt6chrono3_V212steady_clockENSF_11wait_traitsISJ_EENSF_22waitable_timer_serviceISJ_SL_EEEEESt8functionIS3_ES2_EESE_ISD_ESP_SR_St12_PlaceholderILi1EEEEE9_M_invokeERKSt9_Any_dataS2_"
 "_ZNSt17_Function_handlerIFvRKSt10error_codeESt5_BindIFSt7_Mem_fnIMN14ws_websocketpp9transport4asio10connectionINS6_6config15asio_tls_client16transport_configEEEFvSt8functionIS3_ES2_EESt10shared_ptrISD_ESF_St12_PlaceholderILi1EEEEE9_M_invokeERKSt9_Any_dataS2_"
 "_ZNSt17_Function_handlerIFvRKSt10error_codeESt5_BindIFSt7_Mem_fnIMN14ws_websocketpp9transport4asio8endpointINS6_6config11asio_client16transport_configEEEFvSt10shared_ptrIN4asio20basic_waitable_timerINSt6chrono3_V212steady_clockENSF_11wait_traitsISJ_EENSF_22waitable_timer_serviceISJ_SL_EEEEESt8functionIS3_ES2_EEPSD_SP_SR_St12_PlaceholderILi1EEEEE9_M_invokeERKSt9_Any_dataS2_"
 "_ZNSt17_Function_handlerIFvRKSt10error_codeESt5_BindIFSt7_Mem_fnIMN14ws_websocketpp9transport4asio8endpointINS6_6config11asio_client16transport_configEEEFvSt10shared_ptrINS8_10connectionISC_EEESE_IN4asio20basic_waitable_timerINSt6chrono3_V212steady_clockENSI_11wait_traitsISM_EENSI_22waitable_timer_serviceISM_SO_EEEEESt8functionIS3_ES2_EEPSD_SH_SS_SU_St12_PlaceholderILi1EEEEE9_M_invokeERKSt9_Any_dataS2_"
 "_ZNSt17_Function_handlerIFvRKSt10error_codeESt5_BindIFSt7_Mem_fnIMN14ws_websocketpp9transport4asio8endpointINS6_6config15asio_tls_client16transport_configEEEFvSt10shared_ptrIN4asio20basic_waitable_timerINSt6chrono3_V212steady_clockENSF_11wait_traitsISJ_EENSF_22waitable_timer_serviceISJ_SL_EEEEESt8functionIS3_ES2_EEPSD_SP_SR_St12_PlaceholderILi1EEEEE9_M_invokeERKSt9_Any_dataS2_"
 "_ZNSt17_Function_handlerIFvRKSt10error_codeESt5_BindIFSt7_Mem_fnIMN14ws_websocketpp9transport4asio8endpointINS6_6config15asio_tls_client16transport_configEEEFvSt10shared_ptrINS8_10connectionISC_EEESE_IN4asio20basic_waitable_timerINSt6chrono3_V212steady_clockENSI_11wait_traitsISM_EENSI_22waitable_timer_serviceISM_SO_EEEEESt8functionIS3_ES2_EEPSD_SH_SS_SU_St12_PlaceholderILi1EEEEE9_M_invokeERKSt9_Any_dataS2_"
 "_ZNSt17_Function_handlerIFvRKSt10error_codeyESt5_BindIFSt7_Mem_fnIMN14ws_websocketpp10connectionINS6_6config11asio_clientEEEFvS2_yEEPSA_St12_PlaceholderILi1EESF_ILi2EEEEE9_M_invokeERKSt9_Any_dataS2_y"
 "_ZNSt17_Function_handlerIFvRKSt10error_codeyESt5_BindIFSt7_Mem_fnIMN14ws_websocketpp10connectionINS6_6config11asio_clientEEEFvS2_yEESt10shared_ptrISA_ESt12_PlaceholderILi1EESG_ILi2EEEEE9_M_invokeERKSt9_Any_dataS2_y"
 "_ZNSt17_Function_handlerIFvRKSt10error_codeyESt5_BindIFSt7_Mem_fnIMN14ws_websocketpp10connectionINS6_6config15asio_tls_clientEEEFvS2_yEEPSA_St12_PlaceholderILi1EESF_ILi2EEEEE9_M_invokeERKSt9_Any_dataS2_y"
 "_ZNSt17_Function_handlerIFvRKSt10error_codeyESt5_BindIFSt7_Mem_fnIMN14ws_websocketpp10connectionINS6_6config15asio_tls_clientEEEFvS2_yEESt10shared_ptrISA_ESt12_PlaceholderILi1EESG_ILi2EEEEE9_M_invokeERKSt9_Any_dataS2_y"
 "_ZNSt17_Function_handlerIFvSt8weak_ptrIvEESt5_BindIFPFvSt10shared_ptrI12WSConnectionEN4Rcpp13Function_ImplINS7_15PreserveStorageEEES1_ES6_SA_St12_PlaceholderILi1EEEEE9_M_invokeERKSt9_Any_dataS1_"
 "_ZNSt17_Function_handlerIFvSt8weak_ptrIvESt10shared_ptrIN14ws_websocketpp14message_buffer7messageINS4_5alloc15con_msg_managerEEEEESt5_BindIFPFvN4Rcpp13Function_ImplINSC_15PreserveStorageEEES1_S9_ESF_St12_PlaceholderILi1EESI_ILi2EEEEE9_M_invokeERKSt9_Any_dataS1_S9_"
 "_ZNSt17_Function_handlerIFvvESt5_BindIFSt7_Mem_fnIMN14ws_websocketpp10connectionINS3_6config11asio_clientEEEFvvEESt10shared_ptrIS7_EEEE9_M_invokeERKSt9_Any_data"
 "_ZNSt17_Function_handlerIFvvESt5_BindIFSt7_Mem_fnIMN14ws_websocketpp10connectionINS3_6config15asio_tls_clientEEEFvvEESt10shared_ptrIS7_EEEE9_M_invokeERKSt9_Any_data"
 "_ZNSt19_Sp_counted_deleterIPvN4asio6detail10socket_ops12noop_deleterESaIvELN9__gnu_cxx12_Lock_policyE2EE10_M_destroyEv"
 "_ZNSt19_Sp_counted_deleterIPvN4asio6detail10socket_ops12noop_deleterESaIvELN9__gnu_cxx12_Lock_policyE2EE10_M_disposeEv"
 "_ZNSt19_Sp_counted_deleterIPvN4asio6detail10socket_ops12noop_deleterESaIvELN9__gnu_cxx12_Lock_policyE2EE14_M_get_deleterERKSt9type_info"
 "_ZNSt19_Sp_counted_deleterIPvN4asio6detail10socket_ops12noop_deleterESaIvELN9__gnu_cxx12_Lock_policyE2EED0Ev"
 "_ZNSt19_Sp_counted_deleterIPvN4asio6detail10socket_ops12noop_deleterESaIvELN9__gnu_cxx12_Lock_policyE2EED1Ev"
 "_ZNSt23_Sp_counted_ptr_inplaceI10ClientImplIN14ws_websocketpp6clientINS1_6config11asio_clientEEEESaIS6_ELN9__gnu_cxx12_Lock_policyE2EE10_M_destroyEv"
 "_ZNSt23_Sp_counted_ptr_inplaceI10ClientImplIN14ws_websocketpp6clientINS1_6config11asio_clientEEEESaIS6_ELN9__gnu_cxx12_Lock_policyE2EE10_M_disposeEv"
 "_ZNSt23_Sp_counted_ptr_inplaceI10ClientImplIN14ws_websocketpp6clientINS1_6config11asio_clientEEEESaIS6_ELN9__gnu_cxx12_Lock_policyE2EE14_M_get_deleterERKSt9type_info"
 "_ZNSt23_Sp_counted_ptr_inplaceI10ClientImplIN14ws_websocketpp6clientINS1_6config11asio_clientEEEESaIS6_ELN9__gnu_cxx12_Lock_policyE2EED0Ev"
 "_ZNSt23_Sp_counted_ptr_inplaceI10ClientImplIN14ws_websocketpp6clientINS1_6config11asio_clientEEEESaIS6_ELN9__gnu_cxx12_Lock_policyE2EED1Ev"
 "_ZNSt23_Sp_counted_ptr_inplaceI10ClientImplIN14ws_websocketpp6clientINS1_6config15asio_tls_clientEEEESaIS6_ELN9__gnu_cxx12_Lock_policyE2EE10_M_destroyEv"
 "_ZNSt23_Sp_counted_ptr_inplaceI10ClientImplIN14ws_websocketpp6clientINS1_6config15asio_tls_clientEEEESaIS6_ELN9__gnu_cxx12_Lock_policyE2EE10_M_disposeEv"
 "_ZNSt23_Sp_counted_ptr_inplaceI10ClientImplIN14ws_websocketpp6clientINS1_6config15asio_tls_clientEEEESaIS6_ELN9__gnu_cxx12_Lock_policyE2EE14_M_get_deleterERKSt9type_info"
 "_ZNSt23_Sp_counted_ptr_inplaceI10ClientImplIN14ws_websocketpp6clientINS1_6config15asio_tls_clientEEEESaIS6_ELN9__gnu_cxx12_Lock_policyE2EED0Ev"
 "_ZNSt23_Sp_counted_ptr_inplaceI10ClientImplIN14ws_websocketpp6clientINS1_6config15asio_tls_clientEEEESaIS6_ELN9__gnu_cxx12_Lock_policyE2EED1Ev"
 "_ZNSt23_Sp_counted_ptr_inplaceI12WSConnectionSaIS0_ELN9__gnu_cxx12_Lock_policyE2EE10_M_destroyEv"
 "_ZNSt23_Sp_counted_ptr_inplaceI12WSConnectionSaIS0_ELN9__gnu_cxx12_Lock_policyE2EE10_M_disposeEv"
 "_ZNSt23_Sp_counted_ptr_inplaceI12WSConnectionSaIS0_ELN9__gnu_cxx12_Lock_policyE2EE14_M_get_deleterERKSt9type_info"
 "_ZNSt23_Sp_counted_ptr_inplaceI12WSConnectionSaIS0_ELN9__gnu_cxx12_Lock_policyE2EED0Ev"
 "_ZNSt23_Sp_counted_ptr_inplaceI12WSConnectionSaIS0_ELN9__gnu_cxx12_Lock_policyE2EED1Ev"
 "_ZNSt23_Sp_counted_ptr_inplaceIN14ws_websocketpp10connectionINS0_6config11asio_clientEEESaIS4_ELN9__gnu_cxx12_Lock_policyE2EE10_M_destroyEv"
 "_ZNSt23_Sp_counted_ptr_inplaceIN14ws_websocketpp10connectionINS0_6config11asio_clientEEESaIS4_ELN9__gnu_cxx12_Lock_policyE2EE10_M_disposeEv"
 "_ZNSt23_Sp_counted_ptr_inplaceIN14ws_websocketpp10connectionINS0_6config11asio_clientEEESaIS4_ELN9__gnu_cxx12_Lock_policyE2EE14_M_get_deleterERKSt9type_info"
 "_ZNSt23_Sp_counted_ptr_inplaceIN14ws_websocketpp10connectionINS0_6config11asio_clientEEESaIS4_ELN9__gnu_cxx12_Lock_policyE2EED0Ev"
 "_ZNSt23_Sp_counted_ptr_inplaceIN14ws_websocketpp10connectionINS0_6config11asio_clientEEESaIS4_ELN9__gnu_cxx12_Lock_policyE2EED1Ev"
 "_ZNSt23_Sp_counted_ptr_inplaceIN14ws_websocketpp10connectionINS0_6config15asio_tls_clientEEESaIS4_ELN9__gnu_cxx12_Lock_policyE2EE10_M_destroyEv"
 "_ZNSt23_Sp_counted_ptr_inplaceIN14ws_websocketpp10connectionINS0_6config15asio_tls_clientEEESaIS4_ELN9__gnu_cxx12_Lock_policyE2EE10_M_disposeEv"
 "_ZNSt23_Sp_counted_ptr_inplaceIN14ws_websocketpp10connectionINS0_6config15asio_tls_clientEEESaIS4_ELN9__gnu_cxx12_Lock_policyE2EE14_M_get_deleterERKSt9type_info"
 "_ZNSt23_Sp_counted_ptr_inplaceIN14ws_websocketpp10connectionINS0_6config15asio_tls_clientEEESaIS4_ELN9__gnu_cxx12_Lock_policyE2EED0Ev"
 "_ZNSt23_Sp_counted_ptr_inplaceIN14ws_websocketpp10connectionINS0_6config15asio_tls_clientEEESaIS4_ELN9__gnu_cxx12_Lock_policyE2EED1Ev"
 "_ZNSt23_Sp_counted_ptr_inplaceIN14ws_websocketpp14message_buffer7messageINS1_5alloc15con_msg_managerEEESaIS5_ELN9__gnu_cxx12_Lock_policyE2EE10_M_destroyEv"
 "_ZNSt23_Sp_counted_ptr_inplaceIN14ws_websocketpp14message_buffer7messageINS1_5alloc15con_msg_managerEEESaIS5_ELN9__gnu_cxx12_Lock_policyE2EE10_M_disposeEv"
 "_ZNSt23_Sp_counted_ptr_inplaceIN14ws_websocketpp14message_buffer7messageINS1_5alloc15con_msg_managerEEESaIS5_ELN9__gnu_cxx12_Lock_policyE2EE14_M_get_deleterERKSt9type_info"
 "_ZNSt23_Sp_counted_ptr_inplaceIN14ws_websocketpp14message_buffer7messageINS1_5alloc15con_msg_managerEEESaIS5_ELN9__gnu_cxx12_Lock_policyE2EED0Ev"
 "_ZNSt23_Sp_counted_ptr_inplaceIN14ws_websocketpp14message_buffer7messageINS1_5alloc15con_msg_managerEEESaIS5_ELN9__gnu_cxx12_Lock_policyE2EED1Ev"
 "_ZNSt23_Sp_counted_ptr_inplaceIN14ws_websocketpp3uriESaIS1_ELN9__gnu_cxx12_Lock_policyE2EE10_M_destroyEv"
 "_ZNSt23_Sp_counted_ptr_inplaceIN14ws_websocketpp3uriESaIS1_ELN9__gnu_cxx12_Lock_policyE2EE10_M_disposeEv"
 "_ZNSt23_Sp_counted_ptr_inplaceIN14ws_websocketpp3uriESaIS1_ELN9__gnu_cxx12_Lock_policyE2EE14_M_get_deleterERKSt9type_info"
 "_ZNSt23_Sp_counted_ptr_inplaceIN14ws_websocketpp3uriESaIS1_ELN9__gnu_cxx12_Lock_policyE2EED0Ev"
 "_ZNSt23_Sp_counted_ptr_inplaceIN14ws_websocketpp3uriESaIS1_ELN9__gnu_cxx12_Lock_policyE2EED1Ev"
 "_ZNSt23_Sp_counted_ptr_inplaceIN14ws_websocketpp9processor6hybi00INS0_6config11asio_clientEEESaIS5_ELN9__gnu_cxx12_Lock_policyE2EE10_M_destroyEv"
 "_ZNSt23_Sp_counted_ptr_inplaceIN14ws_websocketpp9processor6hybi00INS0_6config11asio_clientEEESaIS5_ELN9__gnu_cxx12_Lock_policyE2EE10_M_disposeEv"
 "_ZNSt23_Sp_counted_ptr_inplaceIN14ws_websocketpp9processor6hybi00INS0_6config11asio_clientEEESaIS5_ELN9__gnu_cxx12_Lock_policyE2EE14_M_get_deleterERKSt9type_info"
 "_ZNSt23_Sp_counted_ptr_inplaceIN14ws_websocketpp9processor6hybi00INS0_6config11asio_clientEEESaIS5_ELN9__gnu_cxx12_Lock_policyE2EED0Ev"
 "_ZNSt23_Sp_counted_ptr_inplaceIN14ws_websocketpp9processor6hybi00INS0_6config11asio_clientEEESaIS5_ELN9__gnu_cxx12_Lock_policyE2EED1Ev"
 "_ZNSt23_Sp_counted_ptr_inplaceIN14ws_websocketpp9processor6hybi00INS0_6config15asio_tls_clientEEESaIS5_ELN9__gnu_cxx12_Lock_policyE2EE10_M_destroyEv"
 "_ZNSt23_Sp_counted_ptr_inplaceIN14ws_websocketpp9processor6hybi00INS0_6config15asio_tls_clientEEESaIS5_ELN9__gnu_cxx12_Lock_policyE2EE10_M_disposeEv"
 "_ZNSt23_Sp_counted_ptr_inplaceIN14ws_websocketpp9processor6hybi00INS0_6config15asio_tls_clientEEESaIS5_ELN9__gnu_cxx12_Lock_policyE2EE14_M_get_deleterERKSt9type_info"
 "_ZNSt23_Sp_counted_ptr_inplaceIN14ws_websocketpp9processor6hybi00INS0_6config15asio_tls_clientEEESaIS5_ELN9__gnu_cxx12_Lock_policyE2EED0Ev"
 "_ZNSt23_Sp_counted_ptr_inplaceIN14ws_websocketpp9processor6hybi00INS0_6config15asio_tls_clientEEESaIS5_ELN9__gnu_cxx12_Lock_policyE2EED1Ev"
 "_ZNSt23_Sp_counted_ptr_inplaceIN14ws_websocketpp9processor6hybi07INS0_6config11asio_clientEEESaIS5_ELN9__gnu_cxx12_Lock_policyE2EE10_M_destroyEv"
 "_ZNSt23_Sp_counted_ptr_inplaceIN14ws_websocketpp9processor6hybi07INS0_6config11asio_clientEEESaIS5_ELN9__gnu_cxx12_Lock_policyE2EE10_M_disposeEv"
 "_ZNSt23_Sp_counted_ptr_inplaceIN14ws_websocketpp9processor6hybi07INS0_6config11asio_clientEEESaIS5_ELN9__gnu_cxx12_Lock_policyE2EE14_M_get_deleterERKSt9type_info"
 "_ZNSt23_Sp_counted_ptr_inplaceIN14ws_websocketpp9processor6hybi07INS0_6config11asio_clientEEESaIS5_ELN9__gnu_cxx12_Lock_policyE2EED0Ev"
 "_ZNSt23_Sp_counted_ptr_inplaceIN14ws_websocketpp9processor6hybi07INS0_6config11asio_clientEEESaIS5_ELN9__gnu_cxx12_Lock_policyE2EED1Ev"
 "_ZNSt23_Sp_counted_ptr_inplaceIN14ws_websocketpp9processor6hybi07INS0_6config15asio_tls_clientEEESaIS5_ELN9__gnu_cxx12_Lock_policyE2EE10_M_destroyEv"
 "_ZNSt23_Sp_counted_ptr_inplaceIN14ws_websocketpp9processor6hybi07INS0_6config15asio_tls_clientEEESaIS5_ELN9__gnu_cxx12_Lock_policyE2EE10_M_disposeEv"
 "_ZNSt23_Sp_counted_ptr_inplaceIN14ws_websocketpp9processor6hybi07INS0_6config15asio_tls_clientEEESaIS5_ELN9__gnu_cxx12_Lock_policyE2EE14_M_get_deleterERKSt9type_info"
 "_ZNSt23_Sp_counted_ptr_inplaceIN14ws_websocketpp9processor6hybi07INS0_6config15asio_tls_clientEEESaIS5_ELN9__gnu_cxx12_Lock_policyE2EED0Ev"
 "_ZNSt23_Sp_counted_ptr_inplaceIN14ws_websocketpp9processor6hybi07INS0_6config15asio_tls_clientEEESaIS5_ELN9__gnu_cxx12_Lock_policyE2EED1Ev"
 "_ZNSt23_Sp_counted_ptr_inplaceIN14ws_websocketpp9processor6hybi08INS0_6config11asio_clientEEESaIS5_ELN9__gnu_cxx12_Lock_policyE2EE10_M_destroyEv"
 "_ZNSt23_Sp_counted_ptr_inplaceIN14ws_websocketpp9processor6hybi08INS0_6config11asio_clientEEESaIS5_ELN9__gnu_cxx12_Lock_policyE2EE10_M_disposeEv"
 "_ZNSt23_Sp_counted_ptr_inplaceIN14ws_websocketpp9processor6hybi08INS0_6config11asio_clientEEESaIS5_ELN9__gnu_cxx12_Lock_policyE2EE14_M_get_deleterERKSt9type_info"
 "_ZNSt23_Sp_counted_ptr_inplaceIN14ws_websocketpp9processor6hybi08INS0_6config11asio_clientEEESaIS5_ELN9__gnu_cxx12_Lock_policyE2EED0Ev"
 "_ZNSt23_Sp_counted_ptr_inplaceIN14ws_websocketpp9processor6hybi08INS0_6config11asio_clientEEESaIS5_ELN9__gnu_cxx12_Lock_policyE2EED1Ev"
 "_ZNSt23_Sp_counted_ptr_inplaceIN14ws_websocketpp9processor6hybi08INS0_6config15asio_tls_clientEEESaIS5_ELN9__gnu_cxx12_Lock_policyE2EE10_M_destroyEv"
 "_ZNSt23_Sp_counted_ptr_inplaceIN14ws_websocketpp9processor6hybi08INS0_6config15asio_tls_clientEEESaIS5_ELN9__gnu_cxx12_Lock_policyE2EE10_M_disposeEv"
 "_ZNSt23_Sp_counted_ptr_inplaceIN14ws_websocketpp9processor6hybi08INS0_6config15asio_tls_clientEEESaIS5_ELN9__gnu_cxx12_Lock_policyE2EE14_M_get_deleterERKSt9type_info"
 "_ZNSt23_Sp_counted_ptr_inplaceIN14ws_websocketpp9processor6hybi08INS0_6config15asio_tls_clientEEESaIS5_ELN9__gnu_cxx12_Lock_policyE2EED0Ev"
 "_ZNSt23_Sp_counted_ptr_inplaceIN14ws_websocketpp9processor6hybi08INS0_6config15asio_tls_clientEEESaIS5_ELN9__gnu_cxx12_Lock_policyE2EED1Ev"
 "_ZNSt23_Sp_counted_ptr_inplaceIN14ws_websocketpp9processor6hybi13INS0_6config11asio_clientEEESaIS5_ELN9__gnu_cxx12_Lock_policyE2EE10_M_destroyEv"
 "_ZNSt23_Sp_counted_ptr_inplaceIN14ws_websocketpp9processor6hybi13INS0_6config11asio_clientEEESaIS5_ELN9__gnu_cxx12_Lock_policyE2EE10_M_disposeEv"
 "_ZNSt23_Sp_counted_ptr_inplaceIN14ws_websocketpp9processor6hybi13INS0_6config11asio_clientEEESaIS5_ELN9__gnu_cxx12_Lock_policyE2EE14_M_get_deleterERKSt9type_info"
 "_ZNSt23_Sp_counted_ptr_inplaceIN14ws_websocketpp9processor6hybi13INS0_6config11asio_clientEEESaIS5_ELN9__gnu_cxx12_Lock_policyE2EED0Ev"
 "_ZNSt23_Sp_counted_ptr_inplaceIN14ws_websocketpp9processor6hybi13INS0_6config11asio_clientEEESaIS5_ELN9__gnu_cxx12_Lock_policyE2EED1Ev"
 "_ZNSt23_Sp_counted_ptr_inplaceIN14ws_websocketpp9processor6hybi13INS0_6config15asio_tls_clientEEESaIS5_ELN9__gnu_cxx12_Lock_policyE2EE10_M_destroyEv"
 "_ZNSt23_Sp_counted_ptr_inplaceIN14ws_websocketpp9processor6hybi13INS0_6config15asio_tls_clientEEESaIS5_ELN9__gnu_cxx12_Lock_policyE2EE10_M_disposeEv"
 "_ZNSt23_Sp_counted_ptr_inplaceIN14ws_websocketpp9processor6hybi13INS0_6config15asio_tls_clientEEESaIS5_ELN9__gnu_cxx12_Lock_policyE2EE14_M_get_deleterERKSt9type_info"
 "_ZNSt23_Sp_counted_ptr_inplaceIN14ws_websocketpp9processor6hybi13INS0_6config15asio_tls_clientEEESaIS5_ELN9__gnu_cxx12_Lock_policyE2EED0Ev"
 "_ZNSt23_Sp_counted_ptr_inplaceIN14ws_websocketpp9processor6hybi13INS0_6config15asio_tls_clientEEESaIS5_ELN9__gnu_cxx12_Lock_policyE2EED1Ev"
 "_ZNSt23_Sp_counted_ptr_inplaceIN4asio10io_service6strandESaIS2_ELN9__gnu_cxx12_Lock_policyE2EE10_M_destroyEv"
 "_ZNSt23_Sp_counted_ptr_inplaceIN4asio10io_service6strandESaIS2_ELN9__gnu_cxx12_Lock_policyE2EE10_M_disposeEv"
 "_ZNSt23_Sp_counted_ptr_inplaceIN4asio10io_service6strandESaIS2_ELN9__gnu_cxx12_Lock_policyE2EE14_M_get_deleterERKSt9type_info"
 "_ZNSt23_Sp_counted_ptr_inplaceIN4asio10io_service6strandESaIS2_ELN9__gnu_cxx12_Lock_policyE2EED0Ev"
 "_ZNSt23_Sp_counted_ptr_inplaceIN4asio10io_service6strandESaIS2_ELN9__gnu_cxx12_Lock_policyE2EED1Ev"
 "_ZNSt23_Sp_counted_ptr_inplaceIN4asio19basic_stream_socketINS0_2ip3tcpENS0_21stream_socket_serviceIS3_EEEESaIS6_ELN9__gnu_cxx12_Lock_policyE2EE10_M_destroyEv"
 "_ZNSt23_Sp_counted_ptr_inplaceIN4asio19basic_stream_socketINS0_2ip3tcpENS0_21stream_socket_serviceIS3_EEEESaIS6_ELN9__gnu_cxx12_Lock_policyE2EE10_M_disposeEv"
 "_ZNSt23_Sp_counted_ptr_inplaceIN4asio19basic_stream_socketINS0_2ip3tcpENS0_21stream_socket_serviceIS3_EEEESaIS6_ELN9__gnu_cxx12_Lock_policyE2EE14_M_get_deleterERKSt9type_info"
 "_ZNSt23_Sp_counted_ptr_inplaceIN4asio19basic_stream_socketINS0_2ip3tcpENS0_21stream_socket_serviceIS3_EEEESaIS6_ELN9__gnu_cxx12_Lock_policyE2EED0Ev"
 "_ZNSt23_Sp_counted_ptr_inplaceIN4asio19basic_stream_socketINS0_2ip3tcpENS0_21stream_socket_serviceIS3_EEEESaIS6_ELN9__gnu_cxx12_Lock_policyE2EED1Ev"
 "_ZNSt23_Sp_counted_ptr_inplaceIN4asio20basic_waitable_timerINSt6chrono3_V212steady_clockENS0_11wait_traitsIS4_EENS0_22waitable_timer_serviceIS4_S6_EEEESaIS9_ELN9__gnu_cxx12_Lock_policyE2EE10_M_destroyEv"
 "_ZNSt23_Sp_counted_ptr_inplaceIN4asio20basic_waitable_timerINSt6chrono3_V212steady_clockENS0_11wait_traitsIS4_EENS0_22waitable_timer_serviceIS4_S6_EEEESaIS9_ELN9__gnu_cxx12_Lock_policyE2EE10_M_disposeEv"
 "_ZNSt23_Sp_counted_ptr_inplaceIN4asio20basic_waitable_timerINSt6chrono3_V212steady_clockENS0_11wait_traitsIS4_EENS0_22waitable_timer_serviceIS4_S6_EEEESaIS9_ELN9__gnu_cxx12_Lock_policyE2EE14_M_get_deleterERKSt9type_info"
 "_ZNSt23_Sp_counted_ptr_inplaceIN4asio20basic_waitable_timerINSt6chrono3_V212steady_clockENS0_11wait_traitsIS4_EENS0_22waitable_timer_serviceIS4_S6_EEEESaIS9_ELN9__gnu_cxx12_Lock_policyE2EED0Ev"
 "_ZNSt23_Sp_counted_ptr_inplaceIN4asio20basic_waitable_timerINSt6chrono3_V212steady_clockENS0_11wait_traitsIS4_EENS0_22waitable_timer_serviceIS4_S6_EEEESaIS9_ELN9__gnu_cxx12_Lock_policyE2EED1Ev"
 "_ZNSt23_Sp_counted_ptr_inplaceIN4asio21basic_socket_acceptorINS0_2ip3tcpENS0_23socket_acceptor_serviceIS3_EEEESaIS6_ELN9__gnu_cxx12_Lock_policyE2EE10_M_destroyEv"
 "_ZNSt23_Sp_counted_ptr_inplaceIN4asio21basic_socket_acceptorINS0_2ip3tcpENS0_23socket_acceptor_serviceIS3_EEEESaIS6_ELN9__gnu_cxx12_Lock_policyE2EE10_M_disposeEv"
 "_ZNSt23_Sp_counted_ptr_inplaceIN4asio21basic_socket_acceptorINS0_2ip3tcpENS0_23socket_acceptor_serviceIS3_EEEESaIS6_ELN9__gnu_cxx12_Lock_policyE2EE14_M_get_deleterERKSt9type_info"
 "_ZNSt23_Sp_counted_ptr_inplaceIN4asio21basic_socket_acceptorINS0_2ip3tcpENS0_23socket_acceptor_serviceIS3_EEEESaIS6_ELN9__gnu_cxx12_Lock_policyE2EED0Ev"
 "_ZNSt23_Sp_counted_ptr_inplaceIN4asio21basic_socket_acceptorINS0_2ip3tcpENS0_23socket_acceptor_serviceIS3_EEEESaIS6_ELN9__gnu_cxx12_Lock_policyE2EED1Ev"
 "_ZNSt23_Sp_counted_ptr_inplaceIN4asio2ip14basic_resolverINS1_3tcpENS1_16resolver_serviceIS3_EEEESaIS6_ELN9__gnu_cxx12_Lock_policyE2EE10_M_destroyEv"
 "_ZNSt23_Sp_counted_ptr_inplaceIN4asio2ip14basic_resolverINS1_3tcpENS1_16resolver_serviceIS3_EEEESaIS6_ELN9__gnu_cxx12_Lock_policyE2EE10_M_disposeEv"
 "_ZNSt23_Sp_counted_ptr_inplaceIN4asio2ip14basic_resolverINS1_3tcpENS1_16resolver_serviceIS3_EEEESaIS6_ELN9__gnu_cxx12_Lock_policyE2EE14_M_get_deleterERKSt9type_info"
 "_ZNSt23_Sp_counted_ptr_inplaceIN4asio2ip14basic_resolverINS1_3tcpENS1_16resolver_serviceIS3_EEEESaIS6_ELN9__gnu_cxx12_Lock_policyE2EED0Ev"
 "_ZNSt23_Sp_counted_ptr_inplaceIN4asio2ip14basic_resolverINS1_3tcpENS1_16resolver_serviceIS3_EEEESaIS6_ELN9__gnu_cxx12_Lock_policyE2EED1Ev"
 "_ZNSt23_Sp_counted_ptr_inplaceIN4asio3ssl6streamINS0_19basic_stream_socketINS0_2ip3tcpENS0_21stream_socket_serviceIS5_EEEEEESaIS9_ELN9__gnu_cxx12_Lock_policyE2EE10_M_destroyEv"
 "_ZNSt23_Sp_counted_ptr_inplaceIN4asio3ssl6streamINS0_19basic_stream_socketINS0_2ip3tcpENS0_21stream_socket_serviceIS5_EEEEEESaIS9_ELN9__gnu_cxx12_Lock_policyE2EE10_M_disposeEv"
 "_ZNSt23_Sp_counted_ptr_inplaceIN4asio3ssl6streamINS0_19basic_stream_socketINS0_2ip3tcpENS0_21stream_socket_serviceIS5_EEEEEESaIS9_ELN9__gnu_cxx12_Lock_policyE2EE14_M_get_deleterERKSt9type_info"
 "_ZNSt23_Sp_counted_ptr_inplaceIN4asio3ssl6streamINS0_19basic_stream_socketINS0_2ip3tcpENS0_21stream_socket_serviceIS5_EEEEEESaIS9_ELN9__gnu_cxx12_Lock_policyE2EED0Ev"
 "_ZNSt23_Sp_counted_ptr_inplaceIN4asio3ssl6streamINS0_19basic_stream_socketINS0_2ip3tcpENS0_21stream_socket_serviceIS5_EEEEEESaIS9_ELN9__gnu_cxx12_Lock_policyE2EED1Ev"
 "_ZNSt23_Sp_counted_ptr_inplaceIN4asio3ssl7contextESaIS2_ELN9__gnu_cxx12_Lock_policyE2EE10_M_destroyEv"
 "_ZNSt23_Sp_counted_ptr_inplaceIN4asio3ssl7contextESaIS2_ELN9__gnu_cxx12_Lock_policyE2EE10_M_disposeEv"
 "_ZNSt23_Sp_counted_ptr_inplaceIN4asio3ssl7contextESaIS2_ELN9__gnu_cxx12_Lock_policyE2EE14_M_get_deleterERKSt9type_info"
 "_ZNSt23_Sp_counted_ptr_inplaceIN4asio3ssl7contextESaIS2_ELN9__gnu_cxx12_Lock_policyE2EED0Ev"
 "_ZNSt23_Sp_counted_ptr_inplaceIN4asio3ssl7contextESaIS2_ELN9__gnu_cxx12_Lock_policyE2EED1Ev"
 "_ZNSt23_Sp_counted_ptr_inplaceISsSaISsELN9__gnu_cxx12_Lock_policyE2EE10_M_destroyEv"
 "_ZNSt23_Sp_counted_ptr_inplaceISsSaISsELN9__gnu_cxx12_Lock_policyE2EE10_M_disposeEv"
 "_ZNSt23_Sp_counted_ptr_inplaceISsSaISsELN9__gnu_cxx12_Lock_policyE2EE14_M_get_deleterERKSt9type_info"
 "_ZNSt23_Sp_counted_ptr_inplaceISsSaISsELN9__gnu_cxx12_Lock_policyE2EED0Ev"
 "_ZNSt23_Sp_counted_ptr_inplaceISsSaISsELN9__gnu_cxx12_Lock_policyE2EED1Ev"
 "_ZNSt3mapISsSsN14ws_websocketpp7utility7ci_lessESaISt4pairIKSsSsEEEixERS4_"
 "_ZNSt3mapISsSsSt4lessISsESaISt4pairIKSsSsEEEixERS3_"
 "_ZNSt4pairISsSt3mapISsSsSt4lessISsESaIS_IKSsSsEEEED1Ev"
 "_ZNSt4pairISt10error_codeSsEC1Ev"
 "_ZNSt5dequeISt10shared_ptrIN14ws_websocketpp14message_buffer7messageINS2_5alloc15con_msg_managerEEEESaIS7_EE17_M_reallocate_mapEyb"
 "_ZNSt5dequeISt10shared_ptrIN14ws_websocketpp14message_buffer7messageINS2_5alloc15con_msg_managerEEEESaIS7_EED1Ev"
 "_ZNSt5mutex4lockEv"
 "_ZNSt6vectorIcSaIcEE17_M_default_appendEy"
 "_ZNSt6vectorIN14ws_websocketpp9transport6bufferESaIS2_EE12emplace_backIIS2_EEEvDpOT_"
 "_ZNSt6vectorIN14ws_websocketpp9transport6bufferESaIS2_EE19_M_emplace_back_auxIIS2_EEEvDpOT_"
 "_ZNSt6vectorIN4asio12const_bufferESaIS1_EE12emplace_backIIS1_EEEvDpOT_"
 "_ZNSt6vectorIN4asio12const_bufferESaIS1_EE19_M_emplace_back_auxIIS1_EEEvDpOT_"
 "_ZNSt6vectorIN4asio2ip20basic_resolver_entryINS1_3tcpEEESaIS4_EE19_M_emplace_back_auxIIS4_EEEvDpOT_"
 "_ZNSt6vectorIN4asio6detail11timer_queueINS1_18chrono_time_traitsINSt6chrono3_V212steady_clockENS0_11wait_traitsIS6_EEEEE10heap_entryESaISB_EE19_M_emplace_back_auxIIRKSB_EEEvDpOT_"
 "_ZNSt6vectorISsSaISsEE19_M_emplace_back_auxIIRKSsEEEvDpOT_"
 "_ZNSt6vectorISsSaISsEED1Ev"
 "_ZNSt6vectorISt10shared_ptrIN14ws_websocketpp14message_buffer7messageINS2_5alloc15con_msg_managerEEEESaIS7_EE19_M_emplace_back_auxIIRKS7_EEEvDpOT_"
 "_ZNSt6vectorISt10shared_ptrIN14ws_websocketpp14message_buffer7messageINS2_5alloc15con_msg_managerEEEESaIS7_EED1Ev"
 "_ZNSt6vectorISt10shared_ptrIN4asio6detail9win_mutexEESaIS4_EE17_M_default_appendEy"
 "_ZNSt6vectorISt4pairISsSt3mapISsSsSt4lessISsESaIS0_IKSsSsEEEESaIS8_EE12emplace_backIIS8_EEEvDpOT_"
 "_ZNSt6vectorISt4pairISsSt3mapISsSsSt4lessISsESaIS0_IKSsSsEEEESaIS8_EE19_M_emplace_back_auxIIS8_EEEvDpOT_"
 "_ZNSt6vectorISt4pairISsSt3mapISsSsSt4lessISsESaIS0_IKSsSsEEEESaIS8_EED1Ev"
 "_ZNSt8_Rb_treeISsSt4pairIKSsSsESt10_Select1stIS2_EN14ws_websocketpp7utility7ci_lessESaIS2_EE11equal_rangeERS1_"
 "_ZNSt8_Rb_treeISsSt4pairIKSsSsESt10_Select1stIS2_EN14ws_websocketpp7utility7ci_lessESaIS2_EE14_M_create_nodeIIRKS2_EEEPSt13_Rb_tree_nodeIS2_EDpOT_"
 "_ZNSt8_Rb_treeISsSt4pairIKSsSsESt10_Select1stIS2_EN14ws_websocketpp7utility7ci_lessESaIS2_EE22_M_emplace_hint_uniqueIIRKSt21piecewise_construct_tSt5tupleIIRS1_EESE_IIEEEEESt17_Rb_tree_iteratorIS2_ESt23_Rb_tree_const_iteratorIS2_EDpOT_"
 "_ZNSt8_Rb_treeISsSt4pairIKSsSsESt10_Select1stIS2_EN14ws_websocketpp7utility7ci_lessESaIS2_EE24_M_get_insert_unique_posERS1_"
 "_ZNSt8_Rb_treeISsSt4pairIKSsSsESt10_Select1stIS2_EN14ws_websocketpp7utility7ci_lessESaIS2_EE5eraseERS1_"
 "_ZNSt8_Rb_treeISsSt4pairIKSsSsESt10_Select1stIS2_EN14ws_websocketpp7utility7ci_lessESaIS2_EE7_M_copyEPKSt13_Rb_tree_nodeIS2_EPSB_"
 "_ZNSt8_Rb_treeISsSt4pairIKSsSsESt10_Select1stIS2_EN14ws_websocketpp7utility7ci_lessESaIS2_EE8_M_eraseEPSt13_Rb_tree_nodeIS2_E"
 "_ZNSt8_Rb_treeISsSt4pairIKSsSsESt10_Select1stIS2_ESt4lessISsESaIS2_EE14_M_create_nodeIIRKS2_EEEPSt13_Rb_tree_nodeIS2_EDpOT_"
 "_ZNSt8_Rb_treeISsSt4pairIKSsSsESt10_Select1stIS2_ESt4lessISsESaIS2_EE22_M_emplace_hint_uniqueIIRKSt21piecewise_construct_tSt5tupleIIRS1_EESD_IIEEEEESt17_Rb_tree_iteratorIS2_ESt23_Rb_tree_const_iteratorIS2_EDpOT_"
 "_ZNSt8_Rb_treeISsSt4pairIKSsSsESt10_Select1stIS2_ESt4lessISsESaIS2_EE24_M_get_insert_unique_posERS1_"
 "_ZNSt8_Rb_treeISsSt4pairIKSsSsESt10_Select1stIS2_ESt4lessISsESaIS2_EE7_M_copyEPKSt13_Rb_tree_nodeIS2_EPSA_"
 "_ZNSt8_Rb_treeISsSt4pairIKSsSsESt10_Select1stIS2_ESt4lessISsESaIS2_EE8_M_eraseEPSt13_Rb_tree_nodeIS2_E"
 "_ZNSt8functionIFbSt8weak_ptrIvEEEC1ERKS3_"
 "_ZNSt8functionIFbSt8weak_ptrIvESsEEC1ERKS3_"
 "_ZNSt8functionIFSt10shared_ptrIN4asio3ssl7contextEESt8weak_ptrIvEEEC1ERKS8_"
 "_ZNSt8functionIFvRKSt10error_codeEEC1EOS4_"
 "_ZNSt8functionIFvRKSt10error_codeEEC1ERKS4_"
 "_ZNSt8functionIFvRKSt10error_codeEEC1ISt5_BindIFSt7_Mem_fnIMN14ws_websocketpp10connectionINS8_6config11asio_clientEEEFvS2_EESt10shared_ptrISC_ESt12_PlaceholderILi1EEEEvEET_"
 "_ZNSt8functionIFvRKSt10error_codeEEC1ISt5_BindIFSt7_Mem_fnIMN14ws_websocketpp10connectionINS8_6config15asio_tls_clientEEEFvS2_EESt10shared_ptrISC_ESt12_PlaceholderILi1EEEEvEET_"
 "_ZNSt8functionIFvRKSt10error_codeEEC1ISt5_BindIFSt7_Mem_fnIMN14ws_websocketpp9transport4asio10connectionINS8_6config11asio_client16transport_configEEEFvS4_S2_EESt10shared_ptrISF_ES4_St12_PlaceholderILi1EEEEvEET_"
 "_ZNSt8functionIFvRKSt10error_codeEEC1ISt5_BindIFSt7_Mem_fnIMN14ws_websocketpp9transport4asio10connectionINS8_6config11asio_client16transport_configEEEFvSt10shared_ptrIN4asio20basic_waitable_timerINSt6chrono3_V212steady_clockENSH_11wait_traitsISL_EENSH_22waitable_timer_serviceISL_SN_EEEEES4_S2_EESG_ISF_ESR_S4_St12_PlaceholderILi1EEEEvEET_"
 "_ZNSt8functionIFvRKSt10error_codeEEC1ISt5_BindIFSt7_Mem_fnIMN14ws_websocketpp9transport4asio10connectionINS8_6config15asio_tls_client16transport_configEEEFvS4_S2_EESt10shared_ptrISF_ES4_St12_PlaceholderILi1EEEEvEET_"
 "_ZNSt8functionIFvRKSt10error_codeEEC1ISt5_BindIFSt7_Mem_fnIMN14ws_websocketpp9transport4asio10connectionINS8_6config15asio_tls_client16transport_configEEEFvSt10shared_ptrIN4asio20basic_waitable_timerINSt6chrono3_V212steady_clockENSH_11wait_traitsISL_EENSH_22waitable_timer_serviceISL_SN_EEEEES4_S2_EESG_ISF_ESR_S4_St12_PlaceholderILi1EEEEvEET_"
 "_ZNSt8functionIFvRKSt10error_codeyEEC1ERKS4_"
 "_ZNSt8functionIFvRKSt10error_codeyEEC1ISt5_BindIFSt7_Mem_fnIMN14ws_websocketpp10connectionINS8_6config11asio_clientEEEFvS2_yEESt10shared_ptrISC_ESt12_PlaceholderILi1EESI_ILi2EEEEvEET_"
 "_ZNSt8functionIFvRKSt10error_codeyEEC1ISt5_BindIFSt7_Mem_fnIMN14ws_websocketpp10connectionINS8_6config15asio_tls_clientEEEFvS2_yEESt10shared_ptrISC_ESt12_PlaceholderILi1EESI_ILi2EEEEvEET_"
 "_ZNSt8functionIFvSt8weak_ptrIvEEEaSERKS3_"
 "_ZNSt8functionIFvSt8weak_ptrIvEEEC1ERKS3_"
 "_ZNSt8functionIFvSt8weak_ptrIvEEEC1ISt5_BindIFPFvSt10shared_ptrI12WSConnectionEN4Rcpp13Function_ImplINS9_15PreserveStorageEEES1_ES8_SC_St12_PlaceholderILi1EEEEvEET_"
 "_ZNSt8functionIFvSt8weak_ptrIvERN4asio19basic_stream_socketINS2_2ip3tcpENS2_21stream_socket_serviceIS5_EEEEEEC1ERKSB_"
 "_ZNSt8functionIFvSt8weak_ptrIvERN4asio3ssl6streamINS2_19basic_stream_socketINS2_2ip3tcpENS2_21stream_socket_serviceIS7_EEEEEEEEC1ERKSE_"
 "_ZNSt8functionIFvSt8weak_ptrIvESsEEaSERKS3_"
 "_ZNSt8functionIFvSt8weak_ptrIvESsEEC1ERKS3_"
 "_ZNSt8functionIFvSt8weak_ptrIvESt10shared_ptrIN14ws_websocketpp14message_buffer7messageINS4_5alloc15con_msg_managerEEEEEEaSERKSB_"
 "_ZNSt8functionIFvSt8weak_ptrIvESt10shared_ptrIN14ws_websocketpp14message_buffer7messageINS4_5alloc15con_msg_managerEEEEEEC1ERKSB_"
 "_ZNSt8functionIFvvEEC1EOS1_"
 "_ZNSt8functionIFvvEEC1ERKS1_"
 "_ZNSt8functionIFvvEEC1ISt5_BindIFSt7_Mem_fnIMN14ws_websocketpp10connectionINS5_6config11asio_clientEEEFvvEESt10shared_ptrIS9_EEEvEET_"
 "_ZNSt8functionIFvvEEC1ISt5_BindIFSt7_Mem_fnIMN14ws_websocketpp10connectionINS5_6config15asio_tls_clientEEEFvvEESt10shared_ptrIS9_EEEvEET_"
 "_ZSt20__throw_bad_weak_ptrv"
 "_ZSt8__searchIN9__gnu_cxx17__normal_iteratorIPcSsEEPKcNS0_5__ops19_Iter_equal_to_iterEET_S8_S8_T0_S9_T1_"
 "_ZSt9__find_ifIN9__gnu_cxx17__normal_iteratorIPcSsEENS0_5__ops17_Iter_equals_iterIPKcEEET_S9_S9_T0_St26random_access_iterator_tag"
 "_ZSt9__find_ifIN9__gnu_cxx17__normal_iteratorIPKcSsEENS0_5__ops10_Iter_predIPFbhEEEET_SA_SA_T0_St26random_access_iterator_tag"
 "_ZSt9__find_ifIN9__gnu_cxx17__normal_iteratorIPKcSsEENS0_5__ops16_Iter_equals_valIS2_EEET_S8_S8_T0_St26random_access_iterator_tag"
 "_ZSt9__find_ifIN9__gnu_cxx17__normal_iteratorIPKcSsEENS0_5__ops18_Iter_comp_to_iterIN14ws_websocketpp7utility8my_equalIcEES3_EEET_SC_SC_T0_St26random_access_iterator_tag"
 "_ZSt9__find_ifIPhN9__gnu_cxx5__ops16_Iter_equals_valIKhEEET_S6_S6_T0_St26random_access_iterator_tag"
 "_ZStlsIcSt11char_traitsIcEERSt13basic_ostreamIT_T0_ES6_RKSt10error_code"
 "_ZStplIcSt11char_traitsIcESaIcEESbIT_T0_T1_EOS6_PKS3_"
 "_ZStplIcSt11char_traitsIcESaIcEESbIT_T0_T1_EOS6_RKS6_"
 "_ZStplIcSt11char_traitsIcESaIcEESbIT_T0_T1_EPKS3_OS6_"
 "_ZStplIcSt11char_traitsIcESaIcEESbIT_T0_T1_EPKS3_RKS6_"
 "_ZStplIcSt11char_traitsIcESaIcEESbIT_T0_T1_ERKS6_PKS3_"
 "_ZTCN4Rcpp8RostreamILb0EEE0_So"
 "_ZTCN4Rcpp8RostreamILb1EEE0_So"
 "_ZTI10ClientImplIN14ws_websocketpp6clientINS0_6config11asio_clientEEEE"
 "_ZTI10ClientImplIN14ws_websocketpp6clientINS0_6config15asio_tls_clientEEEE"
 "_ZTI6Client"
 "_ZTIN14ws_websocketpp4http9exceptionE"
 "_ZTIN14ws_websocketpp5error8categoryE"
 "_ZTIN14ws_websocketpp9exceptionE"
 "_ZTIN14ws_websocketpp9processor5error18processor_categoryE"
 "_ZTIN14ws_websocketpp9processor6hybi00INS_6config11asio_clientEEE"
 "_ZTIN14ws_websocketpp9processor6hybi00INS_6config15asio_tls_clientEEE"
 "_ZTIN14ws_websocketpp9processor6hybi07INS_6config11asio_clientEEE"
 "_ZTIN14ws_websocketpp9processor6hybi07INS_6config15asio_tls_clientEEE"
 "_ZTIN14ws_websocketpp9processor6hybi08INS_6config11asio_clientEEE"
 "_ZTIN14ws_websocketpp9processor6hybi08INS_6config15asio_tls_clientEEE"
 "_ZTIN14ws_websocketpp9processor6hybi13INS_6config11asio_clientEEE"
 "_ZTIN14ws_websocketpp9processor6hybi13INS_6config15asio_tls_clientEEE"
 "_ZTIN14ws_websocketpp9processor9processorINS_6config11asio_clientEEE"
 "_ZTIN14ws_websocketpp9processor9processorINS_6config15asio_tls_clientEEE"
 "_ZTIN14ws_websocketpp9transport4asio5error8categoryE"
 "_ZTIN14ws_websocketpp9transport4asio6socket15socket_categoryE"
 "_ZTIN14ws_websocketpp9transport5error8categoryE"
 "_ZTIN4asio10io_service7serviceE"
 "_ZTIN4asio17execution_context7serviceE"
 "_ZTIN4asio21invalid_service_ownerE"
 "_ZTIN4asio21stream_socket_serviceINS_2ip3tcpEEE"
 "_ZTIN4asio22service_already_existsE"
 "_ZTIN4asio22waitable_timer_serviceINSt6chrono3_V212steady_clockENS_11wait_traitsIS3_EEEE"
 "_ZTIN4asio23socket_acceptor_serviceINS_2ip3tcpEEE"
 "_ZTIN4asio2ip16bad_address_castE"
 "_ZTIN4asio2ip16resolver_serviceINS0_3tcpEEE"
 "_ZTIN4asio5error6detail12ssl_categoryE"
 "_ZTIN4asio5error6detail13misc_categoryE"
 "_ZTIN4asio6detail10socket_ops12noop_deleterE"
 "_ZTIN4asio6detail10win_thread4funcINS0_14select_reactor15thread_functionEEE"
 "_ZTIN4asio6detail10win_thread4funcINS0_19win_iocp_io_service21timer_thread_functionEEE"
 "_ZTIN4asio6detail10win_thread4funcINS0_21resolver_service_base22work_io_service_runnerEEE"
 "_ZTIN4asio6detail10win_thread9func_baseE"
 "_ZTIN4asio6detail11noncopyableE"
 "_ZTIN4asio6detail11timer_queueINS0_18chrono_time_traitsINSt6chrono3_V212steady_clockENS_11wait_traitsIS5_EEEEEE"
 "_ZTIN4asio6detail12service_baseINS_21stream_socket_serviceINS_2ip3tcpEEEEE"
 "_ZTIN4asio6detail12service_baseINS_22waitable_timer_serviceINSt6chrono3_V212steady_clockENS_11wait_traitsIS5_EEEEEE"
 "_ZTIN4asio6detail12service_baseINS_23socket_acceptor_serviceINS_2ip3tcpEEEEE"
 "_ZTIN4asio6detail12service_baseINS_2ip16resolver_serviceINS2_3tcpEEEEE"
 "_ZTIN4asio6detail12service_baseINS0_14strand_serviceEEE"
 "_ZTIN4asio6detail14select_reactorE"
 "_ZTIN4asio6detail14strand_serviceE"
 "_ZTIN4asio6detail14thread_contextE"
 "_ZTIN4asio6detail14typeid_wrapperINS_21stream_socket_serviceINS_2ip3tcpEEEEE"
 "_ZTIN4asio6detail14typeid_wrapperINS_22waitable_timer_serviceINSt6chrono3_V212steady_clockENS_11wait_traitsIS5_EEEEEE"
 "_ZTIN4asio6detail14typeid_wrapperINS_23socket_acceptor_serviceINS_2ip3tcpEEEEE"
 "_ZTIN4asio6detail14typeid_wrapperINS_2ip16resolver_serviceINS2_3tcpEEEEE"
 "_ZTIN4asio6detail14typeid_wrapperINS0_14select_reactorEEE"
 "_ZTIN4asio6detail14typeid_wrapperINS0_14strand_serviceEEE"
 "_ZTIN4asio6detail14typeid_wrapperINS0_19win_iocp_io_serviceEEE"
 "_ZTIN4asio6detail15system_categoryE"
 "_ZTIN4asio6detail16timer_queue_baseE"
 "_ZTIN4asio6detail19win_iocp_io_serviceE"
 "_ZTIN4asio6detail30execution_context_service_baseINS0_14select_reactorEEE"
 "_ZTIN4asio6detail30execution_context_service_baseINS0_19win_iocp_io_serviceEEE"
 "_ZTIN4Rcpp10eval_errorE"
 "_ZTIN4Rcpp10RstreambufILb0EEE"
 "_ZTIN4Rcpp10RstreambufILb1EEE"
 "_ZTIN4Rcpp8internal20InterruptedExceptionE"
 "_ZTIN4Rcpp8RostreamILb0EEE"
 "_ZTIN4Rcpp8RostreamILb1EEE"
 "_ZTIN4Rcpp9exceptionE"
 "_ZTISt11_Mutex_baseILN9__gnu_cxx12_Lock_policyE2EE"
 "_ZTISt11logic_error"
 "_ZTISt12bad_weak_ptr"
 "_ZTISt12length_error"
 "_ZTISt12system_error"
 "_ZTISt13runtime_error"
 "_ZTISt14error_category"
 "_ZTISt15_Sp_counted_ptrIPN14ws_websocketpp14message_buffer5alloc15con_msg_managerINS1_7messageIS3_EEEELN9__gnu_cxx12_Lock_policyE2EE"
 "_ZTISt15_Sp_counted_ptrIPN4asio3ssl6detail17openssl_init_base7do_initELN9__gnu_cxx12_Lock_policyE2EE"
 "_ZTISt15_Sp_counted_ptrIPN4asio6detail9win_mutexELN9__gnu_cxx12_Lock_policyE2EE"
 "_ZTISt15_Sp_counted_ptrIPSt6vectorIN4asio2ip20basic_resolver_entryINS2_3tcpEEESaIS5_EELN9__gnu_cxx12_Lock_policyE2EE"
 "_ZTISt16_Sp_counted_baseILN9__gnu_cxx12_Lock_policyE2EE"
 "_ZTISt17_Weak_result_typeIPFSt10shared_ptrIN4asio3ssl7contextEEvEE"
 "_ZTISt17_Weak_result_typeIPFvN4Rcpp13Function_ImplINS0_15PreserveStorageEEESt8weak_ptrIvESt10shared_ptrIN14ws_websocketpp14message_buffer7messageINS8_5alloc15con_msg_managerEEEEEE"
 "_ZTISt17_Weak_result_typeIPFvSt10shared_ptrI12WSConnectionEN4Rcpp13Function_ImplINS3_15PreserveStorageEEESt8weak_ptrIvEEE"
 "_ZTISt17_Weak_result_typeISt7_Mem_fnIMN14ws_websocketpp10connectionINS1_6config11asio_clientEEEFvNS5_16terminate_statusERKSt10error_codeEEE"
 "_ZTISt17_Weak_result_typeISt7_Mem_fnIMN14ws_websocketpp10connectionINS1_6config11asio_clientEEEFvRKSt10error_codeEEE"
 "_ZTISt17_Weak_result_typeISt7_Mem_fnIMN14ws_websocketpp10connectionINS1_6config11asio_clientEEEFvRKSt10error_codeyEEE"
 "_ZTISt17_Weak_result_typeISt7_Mem_fnIMN14ws_websocketpp10connectionINS1_6config11asio_clientEEEFvvEEE"
 "_ZTISt17_Weak_result_typeISt7_Mem_fnIMN14ws_websocketpp10connectionINS1_6config15asio_tls_clientEEEFvNS5_16terminate_statusERKSt10error_codeEEE"
 "_ZTISt17_Weak_result_typeISt7_Mem_fnIMN14ws_websocketpp10connectionINS1_6config15asio_tls_clientEEEFvRKSt10error_codeEEE"
 "_ZTISt17_Weak_result_typeISt7_Mem_fnIMN14ws_websocketpp10connectionINS1_6config15asio_tls_clientEEEFvRKSt10error_codeyEEE"
 "_ZTISt17_Weak_result_typeISt7_Mem_fnIMN14ws_websocketpp10connectionINS1_6config15asio_tls_clientEEEFvvEEE"
 "_ZTISt17_Weak_result_typeISt7_Mem_fnIMN14ws_websocketpp6clientINS1_6config11asio_clientEEEFvSt10shared_ptrINS1_10connectionIS4_EEERKSt10error_codeEEE"
 "_ZTISt17_Weak_result_typeISt7_Mem_fnIMN14ws_websocketpp6clientINS1_6config15asio_tls_clientEEEFvSt10shared_ptrINS1_10connectionIS4_EEERKSt10error_codeEEE"
 "_ZTISt17_Weak_result_typeISt7_Mem_fnIMN14ws_websocketpp9transport4asio10connectionINS1_6config11asio_client16transport_configEEEFvSt10shared_ptrIN4asio20basic_waitable_timerINSt6chrono3_V212steady_clockENSA_11wait_traitsISE_EENSA_22waitable_timer_serviceISE_SG_EEEEESt8functionIFvRKSt10error_codeEESO_EEE"
 "_ZTISt17_Weak_result_typeISt7_Mem_fnIMN14ws_websocketpp9transport4asio10connectionINS1_6config11asio_client16transport_configEEEFvSt8functionIFvRKSt10error_codeEESC_EEE"
 "_ZTISt17_Weak_result_typeISt7_Mem_fnIMN14ws_websocketpp9transport4asio10connectionINS1_6config15asio_tls_client16transport_configEEEFvSt10shared_ptrIN4asio20basic_waitable_timerINSt6chrono3_V212steady_clockENSA_11wait_traitsISE_EENSA_22waitable_timer_serviceISE_SG_EEEEESt8functionIFvRKSt10error_codeEESO_EEE"
 "_ZTISt17_Weak_result_typeISt7_Mem_fnIMN14ws_websocketpp9transport4asio10connectionINS1_6config15asio_tls_client16transport_configEEEFvSt8functionIFvRKSt10error_codeEESC_EEE"
 "_ZTISt17_Weak_result_typeISt7_Mem_fnIMN14ws_websocketpp9transport4asio8endpointINS1_6config11asio_client16transport_configEEEFvSt10shared_ptrIN4asio20basic_waitable_timerINSt6chrono3_V212steady_clockENSA_11wait_traitsISE_EENSA_22waitable_timer_serviceISE_SG_EEEEESt8functionIFvRKSt10error_codeEESO_EEE"
 "_ZTISt17_Weak_result_typeISt7_Mem_fnIMN14ws_websocketpp9transport4asio8endpointINS1_6config11asio_client16transport_configEEEFvSt10shared_ptrINS3_10connectionIS7_EEES9_IN4asio20basic_waitable_timerINSt6chrono3_V212steady_clockENSD_11wait_traitsISH_EENSD_22waitable_timer_serviceISH_SJ_EEEEESt8functionIFvRKSt10error_codeEESR_EEE"
 "_ZTISt17_Weak_result_typeISt7_Mem_fnIMN14ws_websocketpp9transport4asio8endpointINS1_6config15asio_tls_client16transport_configEEEFvSt10shared_ptrIN4asio20basic_waitable_timerINSt6chrono3_V212steady_clockENSA_11wait_traitsISE_EENSA_22waitable_timer_serviceISE_SG_EEEEESt8functionIFvRKSt10error_codeEESO_EEE"
 "_ZTISt17_Weak_result_typeISt7_Mem_fnIMN14ws_websocketpp9transport4asio8endpointINS1_6config15asio_tls_client16transport_configEEEFvSt10shared_ptrINS3_10connectionIS7_EEES9_IN4asio20basic_waitable_timerINSt6chrono3_V212steady_clockENSD_11wait_traitsISH_EENSD_22waitable_timer_serviceISH_SJ_EEEEESt8functionIFvRKSt10error_codeEESR_EEE"
 "_ZTISt19_Sp_counted_deleterIPvN4asio6detail10socket_ops12noop_deleterESaIvELN9__gnu_cxx12_Lock_policyE2EE"
 "_ZTISt19_Sp_make_shared_tag"
 "_ZTISt22_Maybe_get_result_typeILb1ESt7_Mem_fnIMN14ws_websocketpp10connectionINS1_6config11asio_clientEEEFvNS5_16terminate_statusERKSt10error_codeEEE"
 "_ZTISt22_Maybe_get_result_typeILb1ESt7_Mem_fnIMN14ws_websocketpp10connectionINS1_6config11asio_clientEEEFvRKSt10error_codeEEE"
 "_ZTISt22_Maybe_get_result_typeILb1ESt7_Mem_fnIMN14ws_websocketpp10connectionINS1_6config11asio_clientEEEFvRKSt10error_codeyEEE"
 "_ZTISt22_Maybe_get_result_typeILb1ESt7_Mem_fnIMN14ws_websocketpp10connectionINS1_6config11asio_clientEEEFvvEEE"
 "_ZTISt22_Maybe_get_result_typeILb1ESt7_Mem_fnIMN14ws_websocketpp10connectionINS1_6config15asio_tls_clientEEEFvNS5_16terminate_statusERKSt10error_codeEEE"
 "_ZTISt22_Maybe_get_result_typeILb1ESt7_Mem_fnIMN14ws_websocketpp10connectionINS1_6config15asio_tls_clientEEEFvRKSt10error_codeEEE"
 "_ZTISt22_Maybe_get_result_typeILb1ESt7_Mem_fnIMN14ws_websocketpp10connectionINS1_6config15asio_tls_clientEEEFvRKSt10error_codeyEEE"
 "_ZTISt22_Maybe_get_result_typeILb1ESt7_Mem_fnIMN14ws_websocketpp10connectionINS1_6config15asio_tls_clientEEEFvvEEE"
 "_ZTISt22_Maybe_get_result_typeILb1ESt7_Mem_fnIMN14ws_websocketpp6clientINS1_6config11asio_clientEEEFvSt10shared_ptrINS1_10connectionIS4_EEERKSt10error_codeEEE"
 "_ZTISt22_Maybe_get_result_typeILb1ESt7_Mem_fnIMN14ws_websocketpp6clientINS1_6config15asio_tls_clientEEEFvSt10shared_ptrINS1_10connectionIS4_EEERKSt10error_codeEEE"
 "_ZTISt22_Maybe_get_result_typeILb1ESt7_Mem_fnIMN14ws_websocketpp9transport4asio10connectionINS1_6config11asio_client16transport_configEEEFvSt10shared_ptrIN4asio20basic_waitable_timerINSt6chrono3_V212steady_clockENSA_11wait_traitsISE_EENSA_22waitable_timer_serviceISE_SG_EEEEESt8functionIFvRKSt10error_codeEESO_EEE"
 "_ZTISt22_Maybe_get_result_typeILb1ESt7_Mem_fnIMN14ws_websocketpp9transport4asio10connectionINS1_6config11asio_client16transport_configEEEFvSt8functionIFvRKSt10error_codeEESC_EEE"
 "_ZTISt22_Maybe_get_result_typeILb1ESt7_Mem_fnIMN14ws_websocketpp9transport4asio10connectionINS1_6config15asio_tls_client16transport_configEEEFvSt10shared_ptrIN4asio20basic_waitable_timerINSt6chrono3_V212steady_clockENSA_11wait_traitsISE_EENSA_22waitable_timer_serviceISE_SG_EEEEESt8functionIFvRKSt10error_codeEESO_EEE"
 "_ZTISt22_Maybe_get_result_typeILb1ESt7_Mem_fnIMN14ws_websocketpp9transport4asio10connectionINS1_6config15asio_tls_client16transport_configEEEFvSt8functionIFvRKSt10error_codeEESC_EEE"
 "_ZTISt22_Maybe_get_result_typeILb1ESt7_Mem_fnIMN14ws_websocketpp9transport4asio8endpointINS1_6config11asio_client16transport_configEEEFvSt10shared_ptrIN4asio20basic_waitable_timerINSt6chrono3_V212steady_clockENSA_11wait_traitsISE_EENSA_22waitable_timer_serviceISE_SG_EEEEESt8functionIFvRKSt10error_codeEESO_EEE"
 "_ZTISt22_Maybe_get_result_typeILb1ESt7_Mem_fnIMN14ws_websocketpp9transport4asio8endpointINS1_6config11asio_client16transport_configEEEFvSt10shared_ptrINS3_10connectionIS7_EEES9_IN4asio20basic_waitable_timerINSt6chrono3_V212steady_clockENSD_11wait_traitsISH_EENSD_22waitable_timer_serviceISH_SJ_EEEEESt8functionIFvRKSt10error_codeEESR_EEE"
 "_ZTISt22_Maybe_get_result_typeILb1ESt7_Mem_fnIMN14ws_websocketpp9transport4asio8endpointINS1_6config15asio_tls_client16transport_configEEEFvSt10shared_ptrIN4asio20basic_waitable_timerINSt6chrono3_V212steady_clockENSA_11wait_traitsISE_EENSA_22waitable_timer_serviceISE_SG_EEEEESt8functionIFvRKSt10error_codeEESO_EEE"
 "_ZTISt22_Maybe_get_result_typeILb1ESt7_Mem_fnIMN14ws_websocketpp9transport4asio8endpointINS1_6config15asio_tls_client16transport_configEEEFvSt10shared_ptrINS3_10connectionIS7_EEES9_IN4asio20basic_waitable_timerINSt6chrono3_V212steady_clockENSD_11wait_traitsISH_EENSD_22waitable_timer_serviceISH_SJ_EEEEESt8functionIFvRKSt10error_codeEESR_EEE"
 "_ZTISt22_Weak_result_type_implIPFSt10shared_ptrIN4asio3ssl7contextEEvEE"
 "_ZTISt22_Weak_result_type_implIPFvN4Rcpp13Function_ImplINS0_15PreserveStorageEEESt8weak_ptrIvESt10shared_ptrIN14ws_websocketpp14message_buffer7messageINS8_5alloc15con_msg_managerEEEEEE"
 "_ZTISt22_Weak_result_type_implIPFvSt10shared_ptrI12WSConnectionEN4Rcpp13Function_ImplINS3_15PreserveStorageEEESt8weak_ptrIvEEE"
 "_ZTISt22_Weak_result_type_implISt7_Mem_fnIMN14ws_websocketpp10connectionINS1_6config11asio_clientEEEFvNS5_16terminate_statusERKSt10error_codeEEE"
 "_ZTISt22_Weak_result_type_implISt7_Mem_fnIMN14ws_websocketpp10connectionINS1_6config11asio_clientEEEFvRKSt10error_codeEEE"
 "_ZTISt22_Weak_result_type_implISt7_Mem_fnIMN14ws_websocketpp10connectionINS1_6config11asio_clientEEEFvRKSt10error_codeyEEE"
 "_ZTISt22_Weak_result_type_implISt7_Mem_fnIMN14ws_websocketpp10connectionINS1_6config11asio_clientEEEFvvEEE"
 "_ZTISt22_Weak_result_type_implISt7_Mem_fnIMN14ws_websocketpp10connectionINS1_6config15asio_tls_clientEEEFvNS5_16terminate_statusERKSt10error_codeEEE"
 "_ZTISt22_Weak_result_type_implISt7_Mem_fnIMN14ws_websocketpp10connectionINS1_6config15asio_tls_clientEEEFvRKSt10error_codeEEE"
 "_ZTISt22_Weak_result_type_implISt7_Mem_fnIMN14ws_websocketpp10connectionINS1_6config15asio_tls_clientEEEFvRKSt10error_codeyEEE"
 "_ZTISt22_Weak_result_type_implISt7_Mem_fnIMN14ws_websocketpp10connectionINS1_6config15asio_tls_clientEEEFvvEEE"
 "_ZTISt22_Weak_result_type_implISt7_Mem_fnIMN14ws_websocketpp6clientINS1_6config11asio_clientEEEFvSt10shared_ptrINS1_10connectionIS4_EEERKSt10error_codeEEE"
 "_ZTISt22_Weak_result_type_implISt7_Mem_fnIMN14ws_websocketpp6clientINS1_6config15asio_tls_clientEEEFvSt10shared_ptrINS1_10connectionIS4_EEERKSt10error_codeEEE"
 "_ZTISt22_Weak_result_type_implISt7_Mem_fnIMN14ws_websocketpp9transport4asio10connectionINS1_6config11asio_client16transport_configEEEFvSt10shared_ptrIN4asio20basic_waitable_timerINSt6chrono3_V212steady_clockENSA_11wait_traitsISE_EENSA_22waitable_timer_serviceISE_SG_EEEEESt8functionIFvRKSt10error_codeEESO_EEE"
 "_ZTISt22_Weak_result_type_implISt7_Mem_fnIMN14ws_websocketpp9transport4asio10connectionINS1_6config11asio_client16transport_configEEEFvSt8functionIFvRKSt10error_codeEESC_EEE"
 "_ZTISt22_Weak_result_type_implISt7_Mem_fnIMN14ws_websocketpp9transport4asio10connectionINS1_6config15asio_tls_client16transport_configEEEFvSt10shared_ptrIN4asio20basic_waitable_timerINSt6chrono3_V212steady_clockENSA_11wait_traitsISE_EENSA_22waitable_timer_serviceISE_SG_EEEEESt8functionIFvRKSt10error_codeEESO_EEE"
 "_ZTISt22_Weak_result_type_implISt7_Mem_fnIMN14ws_websocketpp9transport4asio10connectionINS1_6config15asio_tls_client16transport_configEEEFvSt8functionIFvRKSt10error_codeEESC_EEE"
 "_ZTISt22_Weak_result_type_implISt7_Mem_fnIMN14ws_websocketpp9transport4asio8endpointINS1_6config11asio_client16transport_configEEEFvSt10shared_ptrIN4asio20basic_waitable_timerINSt6chrono3_V212steady_clockENSA_11wait_traitsISE_EENSA_22waitable_timer_serviceISE_SG_EEEEESt8functionIFvRKSt10error_codeEESO_EEE"
 "_ZTISt22_Weak_result_type_implISt7_Mem_fnIMN14ws_websocketpp9transport4asio8endpointINS1_6config11asio_client16transport_configEEEFvSt10shared_ptrINS3_10connectionIS7_EEES9_IN4asio20basic_waitable_timerINSt6chrono3_V212steady_clockENSD_11wait_traitsISH_EENSD_22waitable_timer_serviceISH_SJ_EEEEESt8functionIFvRKSt10error_codeEESR_EEE"
 "_ZTISt22_Weak_result_type_implISt7_Mem_fnIMN14ws_websocketpp9transport4asio8endpointINS1_6config15asio_tls_client16transport_configEEEFvSt10shared_ptrIN4asio20basic_waitable_timerINSt6chrono3_V212steady_clockENSA_11wait_traitsISE_EENSA_22waitable_timer_serviceISE_SG_EEEEESt8functionIFvRKSt10error_codeEESO_EEE"
 "_ZTISt22_Weak_result_type_implISt7_Mem_fnIMN14ws_websocketpp9transport4asio8endpointINS1_6config15asio_tls_client16transport_configEEEFvSt10shared_ptrINS3_10connectionIS7_EEES9_IN4asio20basic_waitable_timerINSt6chrono3_V212steady_clockENSD_11wait_traitsISH_EENSD_22waitable_timer_serviceISH_SJ_EEEEESt8functionIFvRKSt10error_codeEESR_EEE"
 "_ZTISt23_Sp_counted_ptr_inplaceI10ClientImplIN14ws_websocketpp6clientINS1_6config11asio_clientEEEESaIS6_ELN9__gnu_cxx12_Lock_policyE2EE"
 "_ZTISt23_Sp_counted_ptr_inplaceI10ClientImplIN14ws_websocketpp6clientINS1_6config15asio_tls_clientEEEESaIS6_ELN9__gnu_cxx12_Lock_policyE2EE"
 "_ZTISt23_Sp_counted_ptr_inplaceI12WSConnectionSaIS0_ELN9__gnu_cxx12_Lock_policyE2EE"
 "_ZTISt23_Sp_counted_ptr_inplaceIN14ws_websocketpp10connectionINS0_6config11asio_clientEEESaIS4_ELN9__gnu_cxx12_Lock_policyE2EE"
 "_ZTISt23_Sp_counted_ptr_inplaceIN14ws_websocketpp10connectionINS0_6config15asio_tls_clientEEESaIS4_ELN9__gnu_cxx12_Lock_policyE2EE"
 "_ZTISt23_Sp_counted_ptr_inplaceIN14ws_websocketpp14message_buffer7messageINS1_5alloc15con_msg_managerEEESaIS5_ELN9__gnu_cxx12_Lock_policyE2EE"
 "_ZTISt23_Sp_counted_ptr_inplaceIN14ws_websocketpp3uriESaIS1_ELN9__gnu_cxx12_Lock_policyE2EE"
 "_ZTISt23_Sp_counted_ptr_inplaceIN14ws_websocketpp9processor6hybi00INS0_6config11asio_clientEEESaIS5_ELN9__gnu_cxx12_Lock_policyE2EE"
 "_ZTISt23_Sp_counted_ptr_inplaceIN14ws_websocketpp9processor6hybi00INS0_6config15asio_tls_clientEEESaIS5_ELN9__gnu_cxx12_Lock_policyE2EE"
 "_ZTISt23_Sp_counted_ptr_inplaceIN14ws_websocketpp9processor6hybi07INS0_6config11asio_clientEEESaIS5_ELN9__gnu_cxx12_Lock_policyE2EE"
 "_ZTISt23_Sp_counted_ptr_inplaceIN14ws_websocketpp9processor6hybi07INS0_6config15asio_tls_clientEEESaIS5_ELN9__gnu_cxx12_Lock_policyE2EE"
 "_ZTISt23_Sp_counted_ptr_inplaceIN14ws_websocketpp9processor6hybi08INS0_6config11asio_clientEEESaIS5_ELN9__gnu_cxx12_Lock_policyE2EE"
 "_ZTISt23_Sp_counted_ptr_inplaceIN14ws_websocketpp9processor6hybi08INS0_6config15asio_tls_clientEEESaIS5_ELN9__gnu_cxx12_Lock_policyE2EE"
 "_ZTISt23_Sp_counted_ptr_inplaceIN14ws_websocketpp9processor6hybi13INS0_6config11asio_clientEEESaIS5_ELN9__gnu_cxx12_Lock_policyE2EE"
 "_ZTISt23_Sp_counted_ptr_inplaceIN14ws_websocketpp9processor6hybi13INS0_6config15asio_tls_clientEEESaIS5_ELN9__gnu_cxx12_Lock_policyE2EE"
 "_ZTISt23_Sp_counted_ptr_inplaceIN4asio10io_service6strandESaIS2_ELN9__gnu_cxx12_Lock_policyE2EE"
 "_ZTISt23_Sp_counted_ptr_inplaceIN4asio19basic_stream_socketINS0_2ip3tcpENS0_21stream_socket_serviceIS3_EEEESaIS6_ELN9__gnu_cxx12_Lock_policyE2EE"
 "_ZTISt23_Sp_counted_ptr_inplaceIN4asio20basic_waitable_timerINSt6chrono3_V212steady_clockENS0_11wait_traitsIS4_EENS0_22waitable_timer_serviceIS4_S6_EEEESaIS9_ELN9__gnu_cxx12_Lock_policyE2EE"
 "_ZTISt23_Sp_counted_ptr_inplaceIN4asio21basic_socket_acceptorINS0_2ip3tcpENS0_23socket_acceptor_serviceIS3_EEEESaIS6_ELN9__gnu_cxx12_Lock_policyE2EE"
 "_ZTISt23_Sp_counted_ptr_inplaceIN4asio2ip14basic_resolverINS1_3tcpENS1_16resolver_serviceIS3_EEEESaIS6_ELN9__gnu_cxx12_Lock_policyE2EE"
 "_ZTISt23_Sp_counted_ptr_inplaceIN4asio3ssl6streamINS0_19basic_stream_socketINS0_2ip3tcpENS0_21stream_socket_serviceIS5_EEEEEESaIS9_ELN9__gnu_cxx12_Lock_policyE2EE"
 "_ZTISt23_Sp_counted_ptr_inplaceIN4asio3ssl7contextESaIS2_ELN9__gnu_cxx12_Lock_policyE2EE"
 "_ZTISt23_Sp_counted_ptr_inplaceISsSaISsELN9__gnu_cxx12_Lock_policyE2EE"
 "_ZTISt5_BindIFPFSt10shared_ptrIN4asio3ssl7contextEEvEvEE"
 "_ZTISt5_BindIFPFvN4Rcpp13Function_ImplINS0_15PreserveStorageEEESt8weak_ptrIvESt10shared_ptrIN14ws_websocketpp14message_buffer7messageINS8_5alloc15con_msg_managerEEEEES3_St12_PlaceholderILi1EESG_ILi2EEEE"
 "_ZTISt5_BindIFPFvSt10shared_ptrI12WSConnectionEN4Rcpp13Function_ImplINS3_15PreserveStorageEEESt8weak_ptrIvEES2_S6_St12_PlaceholderILi1EEEE"
 "_ZTISt5_BindIFSt7_Mem_fnIMN14ws_websocketpp10connectionINS1_6config11asio_clientEEEFvNS5_16terminate_statusERKSt10error_codeEESt10shared_ptrIS5_ES6_St12_PlaceholderILi1EEEE"
 "_ZTISt5_BindIFSt7_Mem_fnIMN14ws_websocketpp10connectionINS1_6config11asio_clientEEEFvRKSt10error_codeEEPS5_St12_PlaceholderILi1EEEE"
 "_ZTISt5_BindIFSt7_Mem_fnIMN14ws_websocketpp10connectionINS1_6config11asio_clientEEEFvRKSt10error_codeEESt10shared_ptrIS5_ESt12_PlaceholderILi1EEEE"
 "_ZTISt5_BindIFSt7_Mem_fnIMN14ws_websocketpp10connectionINS1_6config11asio_clientEEEFvRKSt10error_codeyEEPS5_St12_PlaceholderILi1EESD_ILi2EEEE"
 "_ZTISt5_BindIFSt7_Mem_fnIMN14ws_websocketpp10connectionINS1_6config11asio_clientEEEFvRKSt10error_codeyEESt10shared_ptrIS5_ESt12_PlaceholderILi1EESE_ILi2EEEE"
 "_ZTISt5_BindIFSt7_Mem_fnIMN14ws_websocketpp10connectionINS1_6config11asio_clientEEEFvvEESt10shared_ptrIS5_EEE"
 "_ZTISt5_BindIFSt7_Mem_fnIMN14ws_websocketpp10connectionINS1_6config15asio_tls_clientEEEFvNS5_16terminate_statusERKSt10error_codeEESt10shared_ptrIS5_ES6_St12_PlaceholderILi1EEEE"
 "_ZTISt5_BindIFSt7_Mem_fnIMN14ws_websocketpp10connectionINS1_6config15asio_tls_clientEEEFvRKSt10error_codeEEPS5_St12_PlaceholderILi1EEEE"
 "_ZTISt5_BindIFSt7_Mem_fnIMN14ws_websocketpp10connectionINS1_6config15asio_tls_clientEEEFvRKSt10error_codeEESt10shared_ptrIS5_ESt12_PlaceholderILi1EEEE"
 "_ZTISt5_BindIFSt7_Mem_fnIMN14ws_websocketpp10connectionINS1_6config15asio_tls_clientEEEFvRKSt10error_codeyEEPS5_St12_PlaceholderILi1EESD_ILi2EEEE"
 "_ZTISt5_BindIFSt7_Mem_fnIMN14ws_websocketpp10connectionINS1_6config15asio_tls_clientEEEFvRKSt10error_codeyEESt10shared_ptrIS5_ESt12_PlaceholderILi1EESE_ILi2EEEE"
 "_ZTISt5_BindIFSt7_Mem_fnIMN14ws_websocketpp10connectionINS1_6config15asio_tls_clientEEEFvvEESt10shared_ptrIS5_EEE"
 "_ZTISt5_BindIFSt7_Mem_fnIMN14ws_websocketpp6clientINS1_6config11asio_clientEEEFvSt10shared_ptrINS1_10connectionIS4_EEERKSt10error_codeEEPS5_S9_St12_PlaceholderILi1EEEE"
 "_ZTISt5_BindIFSt7_Mem_fnIMN14ws_websocketpp6clientINS1_6config15asio_tls_clientEEEFvSt10shared_ptrINS1_10connectionIS4_EEERKSt10error_codeEEPS5_S9_St12_PlaceholderILi1EEEE"
 "_ZTISt5_BindIFSt7_Mem_fnIMN14ws_websocketpp9transport4asio10connectionINS1_6config11asio_client16transport_configEEEFvSt10shared_ptrIN4asio20basic_waitable_timerINSt6chrono3_V212steady_clockENSA_11wait_traitsISE_EENSA_22waitable_timer_serviceISE_SG_EEEEESt8functionIFvRKSt10error_codeEESO_EES9_IS8_ESK_SQ_St12_PlaceholderILi1EEEE"
 "_ZTISt5_BindIFSt7_Mem_fnIMN14ws_websocketpp9transport4asio10connectionINS1_6config11asio_client16transport_configEEEFvSt8functionIFvRKSt10error_codeEESC_EESt10shared_ptrIS8_ESE_St12_PlaceholderILi1EEEE"
 "_ZTISt5_BindIFSt7_Mem_fnIMN14ws_websocketpp9transport4asio10connectionINS1_6config15asio_tls_client16transport_configEEEFvSt10shared_ptrIN4asio20basic_waitable_timerINSt6chrono3_V212steady_clockENSA_11wait_traitsISE_EENSA_22waitable_timer_serviceISE_SG_EEEEESt8functionIFvRKSt10error_codeEESO_EES9_IS8_ESK_SQ_St12_PlaceholderILi1EEEE"
 "_ZTISt5_BindIFSt7_Mem_fnIMN14ws_websocketpp9transport4asio10connectionINS1_6config15asio_tls_client16transport_configEEEFvSt8functionIFvRKSt10error_codeEESC_EESt10shared_ptrIS8_ESE_St12_PlaceholderILi1EEEE"
 "_ZTISt5_BindIFSt7_Mem_fnIMN14ws_websocketpp9transport4asio8endpointINS1_6config11asio_client16transport_configEEEFvSt10shared_ptrIN4asio20basic_waitable_timerINSt6chrono3_V212steady_clockENSA_11wait_traitsISE_EENSA_22waitable_timer_serviceISE_SG_EEEEESt8functionIFvRKSt10error_codeEESO_EEPS8_SK_SQ_St12_PlaceholderILi1EEEE"
 "_ZTISt5_BindIFSt7_Mem_fnIMN14ws_websocketpp9transport4asio8endpointINS1_6config11asio_client16transport_configEEEFvSt10shared_ptrINS3_10connectionIS7_EEES9_IN4asio20basic_waitable_timerINSt6chrono3_V212steady_clockENSD_11wait_traitsISH_EENSD_22waitable_timer_serviceISH_SJ_EEEEESt8functionIFvRKSt10error_codeEESR_EEPS8_SC_SN_ST_St12_PlaceholderILi1EEEE"
 "_ZTISt5_BindIFSt7_Mem_fnIMN14ws_websocketpp9transport4asio8endpointINS1_6config15asio_tls_client16transport_configEEEFvSt10shared_ptrIN4asio20basic_waitable_timerINSt6chrono3_V212steady_clockENSA_11wait_traitsISE_EENSA_22waitable_timer_serviceISE_SG_EEEEESt8functionIFvRKSt10error_codeEESO_EEPS8_SK_SQ_St12_PlaceholderILi1EEEE"
 "_ZTISt5_BindIFSt7_Mem_fnIMN14ws_websocketpp9transport4asio8endpointINS1_6config15asio_tls_client16transport_configEEEFvSt10shared_ptrINS3_10connectionIS7_EEES9_IN4asio20basic_waitable_timerINSt6chrono3_V212steady_clockENSD_11wait_traitsISH_EENSD_22waitable_timer_serviceISH_SJ_EEEEESt8functionIFvRKSt10error_codeEESR_EEPS8_SC_SN_ST_St12_PlaceholderILi1EEEE"
 "_ZTISt8bad_cast"
 "_ZTISt9exception"
 "_ZTS10ClientImplIN14ws_websocketpp6clientINS0_6config11asio_clientEEEE"
 "_ZTS10ClientImplIN14ws_websocketpp6clientINS0_6config15asio_tls_clientEEEE"
 "_ZTS6Client"
 "_ZTSN14ws_websocketpp4http9exceptionE"
 "_ZTSN14ws_websocketpp5error8categoryE"
 "_ZTSN14ws_websocketpp9exceptionE"
 "_ZTSN14ws_websocketpp9processor5error18processor_categoryE"
 "_ZTSN14ws_websocketpp9processor6hybi00INS_6config11asio_clientEEE"
 "_ZTSN14ws_websocketpp9processor6hybi00INS_6config15asio_tls_clientEEE"
 "_ZTSN14ws_websocketpp9processor6hybi07INS_6config11asio_clientEEE"
 "_ZTSN14ws_websocketpp9processor6hybi07INS_6config15asio_tls_clientEEE"
 "_ZTSN14ws_websocketpp9processor6hybi08INS_6config11asio_clientEEE"
 "_ZTSN14ws_websocketpp9processor6hybi08INS_6config15asio_tls_clientEEE"
 "_ZTSN14ws_websocketpp9processor6hybi13INS_6config11asio_clientEEE"
 "_ZTSN14ws_websocketpp9processor6hybi13INS_6config15asio_tls_clientEEE"
 "_ZTSN14ws_websocketpp9processor9processorINS_6config11asio_clientEEE"
 "_ZTSN14ws_websocketpp9processor9processorINS_6config15asio_tls_clientEEE"
 "_ZTSN14ws_websocketpp9transport4asio5error8categoryE"
 "_ZTSN14ws_websocketpp9transport4asio6socket15socket_categoryE"
 "_ZTSN14ws_websocketpp9transport5error8categoryE"
 "_ZTSN4asio10io_service7serviceE"
 "_ZTSN4asio17execution_context7serviceE"
 "_ZTSN4asio21invalid_service_ownerE"
 "_ZTSN4asio21stream_socket_serviceINS_2ip3tcpEEE"
 "_ZTSN4asio22service_already_existsE"
 "_ZTSN4asio22waitable_timer_serviceINSt6chrono3_V212steady_clockENS_11wait_traitsIS3_EEEE"
 "_ZTSN4asio23socket_acceptor_serviceINS_2ip3tcpEEE"
 "_ZTSN4asio2ip16bad_address_castE"
 "_ZTSN4asio2ip16resolver_serviceINS0_3tcpEEE"
 "_ZTSN4asio5error6detail12ssl_categoryE"
 "_ZTSN4asio5error6detail13misc_categoryE"
 "_ZTSN4asio6detail10socket_ops12noop_deleterE"
 "_ZTSN4asio6detail10win_thread4funcINS0_14select_reactor15thread_functionEEE"
 "_ZTSN4asio6detail10win_thread4funcINS0_19win_iocp_io_service21timer_thread_functionEEE"
 "_ZTSN4asio6detail10win_thread4funcINS0_21resolver_service_base22work_io_service_runnerEEE"
 "_ZTSN4asio6detail10win_thread9func_baseE"
 "_ZTSN4asio6detail11noncopyableE"
 "_ZTSN4asio6detail11timer_queueINS0_18chrono_time_traitsINSt6chrono3_V212steady_clockENS_11wait_traitsIS5_EEEEEE"
 "_ZTSN4asio6detail12service_baseINS_21stream_socket_serviceINS_2ip3tcpEEEEE"
 "_ZTSN4asio6detail12service_baseINS_22waitable_timer_serviceINSt6chrono3_V212steady_clockENS_11wait_traitsIS5_EEEEEE"
 "_ZTSN4asio6detail12service_baseINS_23socket_acceptor_serviceINS_2ip3tcpEEEEE"
 "_ZTSN4asio6detail12service_baseINS_2ip16resolver_serviceINS2_3tcpEEEEE"
 "_ZTSN4asio6detail12service_baseINS0_14strand_serviceEEE"
 "_ZTSN4asio6detail14select_reactorE"
 "_ZTSN4asio6detail14strand_serviceE"
 "_ZTSN4asio6detail14thread_contextE"
 "_ZTSN4asio6detail14typeid_wrapperINS_21stream_socket_serviceINS_2ip3tcpEEEEE"
 "_ZTSN4asio6detail14typeid_wrapperINS_22waitable_timer_serviceINSt6chrono3_V212steady_clockENS_11wait_traitsIS5_EEEEEE"
 "_ZTSN4asio6detail14typeid_wrapperINS_23socket_acceptor_serviceINS_2ip3tcpEEEEE"
 "_ZTSN4asio6detail14typeid_wrapperINS_2ip16resolver_serviceINS2_3tcpEEEEE"
 "_ZTSN4asio6detail14typeid_wrapperINS0_14select_reactorEEE"
 "_ZTSN4asio6detail14typeid_wrapperINS0_14strand_serviceEEE"
 "_ZTSN4asio6detail14typeid_wrapperINS0_19win_iocp_io_serviceEEE"
 "_ZTSN4asio6detail15system_categoryE"
 "_ZTSN4asio6detail16timer_queue_baseE"
 "_ZTSN4asio6detail19win_iocp_io_serviceE"
 "_ZTSN4asio6detail30execution_context_service_baseINS0_14select_reactorEEE"
 "_ZTSN4asio6detail30execution_context_service_baseINS0_19win_iocp_io_serviceEEE"
 "_ZTSN4Rcpp10eval_errorE"
 "_ZTSN4Rcpp10RstreambufILb0EEE"
 "_ZTSN4Rcpp10RstreambufILb1EEE"
 "_ZTSN4Rcpp8internal20InterruptedExceptionE"
 "_ZTSN4Rcpp8RostreamILb0EEE"
 "_ZTSN4Rcpp8RostreamILb1EEE"
 "_ZTSN4Rcpp9exceptionE"
 "_ZTSSt11_Mutex_baseILN9__gnu_cxx12_Lock_policyE2EE"
 "_ZTSSt11logic_error"
 "_ZTSSt12bad_weak_ptr"
 "_ZTSSt12length_error"
 "_ZTSSt12system_error"
 "_ZTSSt13runtime_error"
 "_ZTSSt14error_category"
 "_ZTSSt15_Sp_counted_ptrIPN14ws_websocketpp14message_buffer5alloc15con_msg_managerINS1_7messageIS3_EEEELN9__gnu_cxx12_Lock_policyE2EE"
 "_ZTSSt15_Sp_counted_ptrIPN4asio3ssl6detail17openssl_init_base7do_initELN9__gnu_cxx12_Lock_policyE2EE"
 "_ZTSSt15_Sp_counted_ptrIPN4asio6detail9win_mutexELN9__gnu_cxx12_Lock_policyE2EE"
 "_ZTSSt15_Sp_counted_ptrIPSt6vectorIN4asio2ip20basic_resolver_entryINS2_3tcpEEESaIS5_EELN9__gnu_cxx12_Lock_policyE2EE"
 "_ZTSSt16_Sp_counted_baseILN9__gnu_cxx12_Lock_policyE2EE"
 "_ZTSSt17_Weak_result_typeIPFSt10shared_ptrIN4asio3ssl7contextEEvEE"
 "_ZTSSt17_Weak_result_typeIPFvN4Rcpp13Function_ImplINS0_15PreserveStorageEEESt8weak_ptrIvESt10shared_ptrIN14ws_websocketpp14message_buffer7messageINS8_5alloc15con_msg_managerEEEEEE"
 "_ZTSSt17_Weak_result_typeIPFvSt10shared_ptrI12WSConnectionEN4Rcpp13Function_ImplINS3_15PreserveStorageEEESt8weak_ptrIvEEE"
 "_ZTSSt17_Weak_result_typeISt7_Mem_fnIMN14ws_websocketpp10connectionINS1_6config11asio_clientEEEFvNS5_16terminate_statusERKSt10error_codeEEE"
 "_ZTSSt17_Weak_result_typeISt7_Mem_fnIMN14ws_websocketpp10connectionINS1_6config11asio_clientEEEFvRKSt10error_codeEEE"
 "_ZTSSt17_Weak_result_typeISt7_Mem_fnIMN14ws_websocketpp10connectionINS1_6config11asio_clientEEEFvRKSt10error_codeyEEE"
 "_ZTSSt17_Weak_result_typeISt7_Mem_fnIMN14ws_websocketpp10connectionINS1_6config11asio_clientEEEFvvEEE"
 "_ZTSSt17_Weak_result_typeISt7_Mem_fnIMN14ws_websocketpp10connectionINS1_6config15asio_tls_clientEEEFvNS5_16terminate_statusERKSt10error_codeEEE"
 "_ZTSSt17_Weak_result_typeISt7_Mem_fnIMN14ws_websocketpp10connectionINS1_6config15asio_tls_clientEEEFvRKSt10error_codeEEE"
 "_ZTSSt17_Weak_result_typeISt7_Mem_fnIMN14ws_websocketpp10connectionINS1_6config15asio_tls_clientEEEFvRKSt10error_codeyEEE"
 "_ZTSSt17_Weak_result_typeISt7_Mem_fnIMN14ws_websocketpp10connectionINS1_6config15asio_tls_clientEEEFvvEEE"
 "_ZTSSt17_Weak_result_typeISt7_Mem_fnIMN14ws_websocketpp6clientINS1_6config11asio_clientEEEFvSt10shared_ptrINS1_10connectionIS4_EEERKSt10error_codeEEE"
 "_ZTSSt17_Weak_result_typeISt7_Mem_fnIMN14ws_websocketpp6clientINS1_6config15asio_tls_clientEEEFvSt10shared_ptrINS1_10connectionIS4_EEERKSt10error_codeEEE"
 "_ZTSSt17_Weak_result_typeISt7_Mem_fnIMN14ws_websocketpp9transport4asio10connectionINS1_6config11asio_client16transport_configEEEFvSt10shared_ptrIN4asio20basic_waitable_timerINSt6chrono3_V212steady_clockENSA_11wait_traitsISE_EENSA_22waitable_timer_serviceISE_SG_EEEEESt8functionIFvRKSt10error_codeEESO_EEE"
 "_ZTSSt17_Weak_result_typeISt7_Mem_fnIMN14ws_websocketpp9transport4asio10connectionINS1_6config11asio_client16transport_configEEEFvSt8functionIFvRKSt10error_codeEESC_EEE"
 "_ZTSSt17_Weak_result_typeISt7_Mem_fnIMN14ws_websocketpp9transport4asio10connectionINS1_6config15asio_tls_client16transport_configEEEFvSt10shared_ptrIN4asio20basic_waitable_timerINSt6chrono3_V212steady_clockENSA_11wait_traitsISE_EENSA_22waitable_timer_serviceISE_SG_EEEEESt8functionIFvRKSt10error_codeEESO_EEE"
 "_ZTSSt17_Weak_result_typeISt7_Mem_fnIMN14ws_websocketpp9transport4asio10connectionINS1_6config15asio_tls_client16transport_configEEEFvSt8functionIFvRKSt10error_codeEESC_EEE"
 "_ZTSSt17_Weak_result_typeISt7_Mem_fnIMN14ws_websocketpp9transport4asio8endpointINS1_6config11asio_client16transport_configEEEFvSt10shared_ptrIN4asio20basic_waitable_timerINSt6chrono3_V212steady_clockENSA_11wait_traitsISE_EENSA_22waitable_timer_serviceISE_SG_EEEEESt8functionIFvRKSt10error_codeEESO_EEE"
 "_ZTSSt17_Weak_result_typeISt7_Mem_fnIMN14ws_websocketpp9transport4asio8endpointINS1_6config11asio_client16transport_configEEEFvSt10shared_ptrINS3_10connectionIS7_EEES9_IN4asio20basic_waitable_timerINSt6chrono3_V212steady_clockENSD_11wait_traitsISH_EENSD_22waitable_timer_serviceISH_SJ_EEEEESt8functionIFvRKSt10error_codeEESR_EEE"
 "_ZTSSt17_Weak_result_typeISt7_Mem_fnIMN14ws_websocketpp9transport4asio8endpointINS1_6config15asio_tls_client16transport_configEEEFvSt10shared_ptrIN4asio20basic_waitable_timerINSt6chrono3_V212steady_clockENSA_11wait_traitsISE_EENSA_22waitable_timer_serviceISE_SG_EEEEESt8functionIFvRKSt10error_codeEESO_EEE"
 "_ZTSSt17_Weak_result_typeISt7_Mem_fnIMN14ws_websocketpp9transport4asio8endpointINS1_6config15asio_tls_client16transport_configEEEFvSt10shared_ptrINS3_10connectionIS7_EEES9_IN4asio20basic_waitable_timerINSt6chrono3_V212steady_clockENSD_11wait_traitsISH_EENSD_22waitable_timer_serviceISH_SJ_EEEEESt8functionIFvRKSt10error_codeEESR_EEE"
 "_ZTSSt19_Sp_counted_deleterIPvN4asio6detail10socket_ops12noop_deleterESaIvELN9__gnu_cxx12_Lock_policyE2EE"
 "_ZTSSt19_Sp_make_shared_tag"
 "_ZTSSt22_Maybe_get_result_typeILb1ESt7_Mem_fnIMN14ws_websocketpp10connectionINS1_6config11asio_clientEEEFvNS5_16terminate_statusERKSt10error_codeEEE"
 "_ZTSSt22_Maybe_get_result_typeILb1ESt7_Mem_fnIMN14ws_websocketpp10connectionINS1_6config11asio_clientEEEFvRKSt10error_codeEEE"
 "_ZTSSt22_Maybe_get_result_typeILb1ESt7_Mem_fnIMN14ws_websocketpp10connectionINS1_6config11asio_clientEEEFvRKSt10error_codeyEEE"
 "_ZTSSt22_Maybe_get_result_typeILb1ESt7_Mem_fnIMN14ws_websocketpp10connectionINS1_6config11asio_clientEEEFvvEEE"
 "_ZTSSt22_Maybe_get_result_typeILb1ESt7_Mem_fnIMN14ws_websocketpp10connectionINS1_6config15asio_tls_clientEEEFvNS5_16terminate_statusERKSt10error_codeEEE"
 "_ZTSSt22_Maybe_get_result_typeILb1ESt7_Mem_fnIMN14ws_websocketpp10connectionINS1_6config15asio_tls_clientEEEFvRKSt10error_codeEEE"
 "_ZTSSt22_Maybe_get_result_typeILb1ESt7_Mem_fnIMN14ws_websocketpp10connectionINS1_6config15asio_tls_clientEEEFvRKSt10error_codeyEEE"
 "_ZTSSt22_Maybe_get_result_typeILb1ESt7_Mem_fnIMN14ws_websocketpp10connectionINS1_6config15asio_tls_clientEEEFvvEEE"
 "_ZTSSt22_Maybe_get_result_typeILb1ESt7_Mem_fnIMN14ws_websocketpp6clientINS1_6config11asio_clientEEEFvSt10shared_ptrINS1_10connectionIS4_EEERKSt10error_codeEEE"
 "_ZTSSt22_Maybe_get_result_typeILb1ESt7_Mem_fnIMN14ws_websocketpp6clientINS1_6config15asio_tls_clientEEEFvSt10shared_ptrINS1_10connectionIS4_EEERKSt10error_codeEEE"
 "_ZTSSt22_Maybe_get_result_typeILb1ESt7_Mem_fnIMN14ws_websocketpp9transport4asio10connectionINS1_6config11asio_client16transport_configEEEFvSt10shared_ptrIN4asio20basic_waitable_timerINSt6chrono3_V212steady_clockENSA_11wait_traitsISE_EENSA_22waitable_timer_serviceISE_SG_EEEEESt8functionIFvRKSt10error_codeEESO_EEE"
 "_ZTSSt22_Maybe_get_result_typeILb1ESt7_Mem_fnIMN14ws_websocketpp9transport4asio10connectionINS1_6config11asio_client16transport_configEEEFvSt8functionIFvRKSt10error_codeEESC_EEE"
 "_ZTSSt22_Maybe_get_result_typeILb1ESt7_Mem_fnIMN14ws_websocketpp9transport4asio10connectionINS1_6config15asio_tls_client16transport_configEEEFvSt10shared_ptrIN4asio20basic_waitable_timerINSt6chrono3_V212steady_clockENSA_11wait_traitsISE_EENSA_22waitable_timer_serviceISE_SG_EEEEESt8functionIFvRKSt10error_codeEESO_EEE"
 "_ZTSSt22_Maybe_get_result_typeILb1ESt7_Mem_fnIMN14ws_websocketpp9transport4asio10connectionINS1_6config15asio_tls_client16transport_configEEEFvSt8functionIFvRKSt10error_codeEESC_EEE"
 "_ZTSSt22_Maybe_get_result_typeILb1ESt7_Mem_fnIMN14ws_websocketpp9transport4asio8endpointINS1_6config11asio_client16transport_configEEEFvSt10shared_ptrIN4asio20basic_waitable_timerINSt6chrono3_V212steady_clockENSA_11wait_traitsISE_EENSA_22waitable_timer_serviceISE_SG_EEEEESt8functionIFvRKSt10error_codeEESO_EEE"
 "_ZTSSt22_Maybe_get_result_typeILb1ESt7_Mem_fnIMN14ws_websocketpp9transport4asio8endpointINS1_6config11asio_client16transport_configEEEFvSt10shared_ptrINS3_10connectionIS7_EEES9_IN4asio20basic_waitable_timerINSt6chrono3_V212steady_clockENSD_11wait_traitsISH_EENSD_22waitable_timer_serviceISH_SJ_EEEEESt8functionIFvRKSt10error_codeEESR_EEE"
 "_ZTSSt22_Maybe_get_result_typeILb1ESt7_Mem_fnIMN14ws_websocketpp9transport4asio8endpointINS1_6config15asio_tls_client16transport_configEEEFvSt10shared_ptrIN4asio20basic_waitable_timerINSt6chrono3_V212steady_clockENSA_11wait_traitsISE_EENSA_22waitable_timer_serviceISE_SG_EEEEESt8functionIFvRKSt10error_codeEESO_EEE"
 "_ZTSSt22_Maybe_get_result_typeILb1ESt7_Mem_fnIMN14ws_websocketpp9transport4asio8endpointINS1_6config15asio_tls_client16transport_configEEEFvSt10shared_ptrINS3_10connectionIS7_EEES9_IN4asio20basic_waitable_timerINSt6chrono3_V212steady_clockENSD_11wait_traitsISH_EENSD_22waitable_timer_serviceISH_SJ_EEEEESt8functionIFvRKSt10error_codeEESR_EEE"
 "_ZTSSt22_Weak_result_type_implIPFSt10shared_ptrIN4asio3ssl7contextEEvEE"
 "_ZTSSt22_Weak_result_type_implIPFvN4Rcpp13Function_ImplINS0_15PreserveStorageEEESt8weak_ptrIvESt10shared_ptrIN14ws_websocketpp14message_buffer7messageINS8_5alloc15con_msg_managerEEEEEE"
 "_ZTSSt22_Weak_result_type_implIPFvSt10shared_ptrI12WSConnectionEN4Rcpp13Function_ImplINS3_15PreserveStorageEEESt8weak_ptrIvEEE"
 "_ZTSSt22_Weak_result_type_implISt7_Mem_fnIMN14ws_websocketpp10connectionINS1_6config11asio_clientEEEFvNS5_16terminate_statusERKSt10error_codeEEE"
 "_ZTSSt22_Weak_result_type_implISt7_Mem_fnIMN14ws_websocketpp10connectionINS1_6config11asio_clientEEEFvRKSt10error_codeEEE"
 "_ZTSSt22_Weak_result_type_implISt7_Mem_fnIMN14ws_websocketpp10connectionINS1_6config11asio_clientEEEFvRKSt10error_codeyEEE"
 "_ZTSSt22_Weak_result_type_implISt7_Mem_fnIMN14ws_websocketpp10connectionINS1_6config11asio_clientEEEFvvEEE"
 "_ZTSSt22_Weak_result_type_implISt7_Mem_fnIMN14ws_websocketpp10connectionINS1_6config15asio_tls_clientEEEFvNS5_16terminate_statusERKSt10error_codeEEE"
 "_ZTSSt22_Weak_result_type_implISt7_Mem_fnIMN14ws_websocketpp10connectionINS1_6config15asio_tls_clientEEEFvRKSt10error_codeEEE"
 "_ZTSSt22_Weak_result_type_implISt7_Mem_fnIMN14ws_websocketpp10connectionINS1_6config15asio_tls_clientEEEFvRKSt10error_codeyEEE"
 "_ZTSSt22_Weak_result_type_implISt7_Mem_fnIMN14ws_websocketpp10connectionINS1_6config15asio_tls_clientEEEFvvEEE"
 "_ZTSSt22_Weak_result_type_implISt7_Mem_fnIMN14ws_websocketpp6clientINS1_6config11asio_clientEEEFvSt10shared_ptrINS1_10connectionIS4_EEERKSt10error_codeEEE"
 "_ZTSSt22_Weak_result_type_implISt7_Mem_fnIMN14ws_websocketpp6clientINS1_6config15asio_tls_clientEEEFvSt10shared_ptrINS1_10connectionIS4_EEERKSt10error_codeEEE"
 "_ZTSSt22_Weak_result_type_implISt7_Mem_fnIMN14ws_websocketpp9transport4asio10connectionINS1_6config11asio_client16transport_configEEEFvSt10shared_ptrIN4asio20basic_waitable_timerINSt6chrono3_V212steady_clockENSA_11wait_traitsISE_EENSA_22waitable_timer_serviceISE_SG_EEEEESt8functionIFvRKSt10error_codeEESO_EEE"
 "_ZTSSt22_Weak_result_type_implISt7_Mem_fnIMN14ws_websocketpp9transport4asio10connectionINS1_6config11asio_client16transport_configEEEFvSt8functionIFvRKSt10error_codeEESC_EEE"
 "_ZTSSt22_Weak_result_type_implISt7_Mem_fnIMN14ws_websocketpp9transport4asio10connectionINS1_6config15asio_tls_client16transport_configEEEFvSt10shared_ptrIN4asio20basic_waitable_timerINSt6chrono3_V212steady_clockENSA_11wait_traitsISE_EENSA_22waitable_timer_serviceISE_SG_EEEEESt8functionIFvRKSt10error_codeEESO_EEE"
 "_ZTSSt22_Weak_result_type_implISt7_Mem_fnIMN14ws_websocketpp9transport4asio10connectionINS1_6config15asio_tls_client16transport_configEEEFvSt8functionIFvRKSt10error_codeEESC_EEE"
 "_ZTSSt22_Weak_result_type_implISt7_Mem_fnIMN14ws_websocketpp9transport4asio8endpointINS1_6config11asio_client16transport_configEEEFvSt10shared_ptrIN4asio20basic_waitable_timerINSt6chrono3_V212steady_clockENSA_11wait_traitsISE_EENSA_22waitable_timer_serviceISE_SG_EEEEESt8functionIFvRKSt10error_codeEESO_EEE"
 "_ZTSSt22_Weak_result_type_implISt7_Mem_fnIMN14ws_websocketpp9transport4asio8endpointINS1_6config11asio_client16transport_configEEEFvSt10shared_ptrINS3_10connectionIS7_EEES9_IN4asio20basic_waitable_timerINSt6chrono3_V212steady_clockENSD_11wait_traitsISH_EENSD_22waitable_timer_serviceISH_SJ_EEEEESt8functionIFvRKSt10error_codeEESR_EEE"
 "_ZTSSt22_Weak_result_type_implISt7_Mem_fnIMN14ws_websocketpp9transport4asio8endpointINS1_6config15asio_tls_client16transport_configEEEFvSt10shared_ptrIN4asio20basic_waitable_timerINSt6chrono3_V212steady_clockENSA_11wait_traitsISE_EENSA_22waitable_timer_serviceISE_SG_EEEEESt8functionIFvRKSt10error_codeEESO_EEE"
 "_ZTSSt22_Weak_result_type_implISt7_Mem_fnIMN14ws_websocketpp9transport4asio8endpointINS1_6config15asio_tls_client16transport_configEEEFvSt10shared_ptrINS3_10connectionIS7_EEES9_IN4asio20basic_waitable_timerINSt6chrono3_V212steady_clockENSD_11wait_traitsISH_EENSD_22waitable_timer_serviceISH_SJ_EEEEESt8functionIFvRKSt10error_codeEESR_EEE"
 "_ZTSSt23_Sp_counted_ptr_inplaceI10ClientImplIN14ws_websocketpp6clientINS1_6config11asio_clientEEEESaIS6_ELN9__gnu_cxx12_Lock_policyE2EE"
 "_ZTSSt23_Sp_counted_ptr_inplaceI10ClientImplIN14ws_websocketpp6clientINS1_6config15asio_tls_clientEEEESaIS6_ELN9__gnu_cxx12_Lock_policyE2EE"
 "_ZTSSt23_Sp_counted_ptr_inplaceI12WSConnectionSaIS0_ELN9__gnu_cxx12_Lock_policyE2EE"
 "_ZTSSt23_Sp_counted_ptr_inplaceIN14ws_websocketpp10connectionINS0_6config11asio_clientEEESaIS4_ELN9__gnu_cxx12_Lock_policyE2EE"
 "_ZTSSt23_Sp_counted_ptr_inplaceIN14ws_websocketpp10connectionINS0_6config15asio_tls_clientEEESaIS4_ELN9__gnu_cxx12_Lock_policyE2EE"
 "_ZTSSt23_Sp_counted_ptr_inplaceIN14ws_websocketpp14message_buffer7messageINS1_5alloc15con_msg_managerEEESaIS5_ELN9__gnu_cxx12_Lock_policyE2EE"
 "_ZTSSt23_Sp_counted_ptr_inplaceIN14ws_websocketpp3uriESaIS1_ELN9__gnu_cxx12_Lock_policyE2EE"
 "_ZTSSt23_Sp_counted_ptr_inplaceIN14ws_websocketpp9processor6hybi00INS0_6config11asio_clientEEESaIS5_ELN9__gnu_cxx12_Lock_policyE2EE"
 "_ZTSSt23_Sp_counted_ptr_inplaceIN14ws_websocketpp9processor6hybi00INS0_6config15asio_tls_clientEEESaIS5_ELN9__gnu_cxx12_Lock_policyE2EE"
 "_ZTSSt23_Sp_counted_ptr_inplaceIN14ws_websocketpp9processor6hybi07INS0_6config11asio_clientEEESaIS5_ELN9__gnu_cxx12_Lock_policyE2EE"
 "_ZTSSt23_Sp_counted_ptr_inplaceIN14ws_websocketpp9processor6hybi07INS0_6config15asio_tls_clientEEESaIS5_ELN9__gnu_cxx12_Lock_policyE2EE"
 "_ZTSSt23_Sp_counted_ptr_inplaceIN14ws_websocketpp9processor6hybi08INS0_6config11asio_clientEEESaIS5_ELN9__gnu_cxx12_Lock_policyE2EE"
 "_ZTSSt23_Sp_counted_ptr_inplaceIN14ws_websocketpp9processor6hybi08INS0_6config15asio_tls_clientEEESaIS5_ELN9__gnu_cxx12_Lock_policyE2EE"
 "_ZTSSt23_Sp_counted_ptr_inplaceIN14ws_websocketpp9processor6hybi13INS0_6config11asio_clientEEESaIS5_ELN9__gnu_cxx12_Lock_policyE2EE"
 "_ZTSSt23_Sp_counted_ptr_inplaceIN14ws_websocketpp9processor6hybi13INS0_6config15asio_tls_clientEEESaIS5_ELN9__gnu_cxx12_Lock_policyE2EE"
 "_ZTSSt23_Sp_counted_ptr_inplaceIN4asio10io_service6strandESaIS2_ELN9__gnu_cxx12_Lock_policyE2EE"
 "_ZTSSt23_Sp_counted_ptr_inplaceIN4asio19basic_stream_socketINS0_2ip3tcpENS0_21stream_socket_serviceIS3_EEEESaIS6_ELN9__gnu_cxx12_Lock_policyE2EE"
 "_ZTSSt23_Sp_counted_ptr_inplaceIN4asio20basic_waitable_timerINSt6chrono3_V212steady_clockENS0_11wait_traitsIS4_EENS0_22waitable_timer_serviceIS4_S6_EEEESaIS9_ELN9__gnu_cxx12_Lock_policyE2EE"
 "_ZTSSt23_Sp_counted_ptr_inplaceIN4asio21basic_socket_acceptorINS0_2ip3tcpENS0_23socket_acceptor_serviceIS3_EEEESaIS6_ELN9__gnu_cxx12_Lock_policyE2EE"
 "_ZTSSt23_Sp_counted_ptr_inplaceIN4asio2ip14basic_resolverINS1_3tcpENS1_16resolver_serviceIS3_EEEESaIS6_ELN9__gnu_cxx12_Lock_policyE2EE"
 "_ZTSSt23_Sp_counted_ptr_inplaceIN4asio3ssl6streamINS0_19basic_stream_socketINS0_2ip3tcpENS0_21stream_socket_serviceIS5_EEEEEESaIS9_ELN9__gnu_cxx12_Lock_policyE2EE"
 "_ZTSSt23_Sp_counted_ptr_inplaceIN4asio3ssl7contextESaIS2_ELN9__gnu_cxx12_Lock_policyE2EE"
 "_ZTSSt23_Sp_counted_ptr_inplaceISsSaISsELN9__gnu_cxx12_Lock_policyE2EE"
 "_ZTSSt5_BindIFPFSt10shared_ptrIN4asio3ssl7contextEEvEvEE"
 "_ZTSSt5_BindIFPFvN4Rcpp13Function_ImplINS0_15PreserveStorageEEESt8weak_ptrIvESt10shared_ptrIN14ws_websocketpp14message_buffer7messageINS8_5alloc15con_msg_managerEEEEES3_St12_PlaceholderILi1EESG_ILi2EEEE"
 "_ZTSSt5_BindIFPFvSt10shared_ptrI12WSConnectionEN4Rcpp13Function_ImplINS3_15PreserveStorageEEESt8weak_ptrIvEES2_S6_St12_PlaceholderILi1EEEE"
 "_ZTSSt5_BindIFSt7_Mem_fnIMN14ws_websocketpp10connectionINS1_6config11asio_clientEEEFvNS5_16terminate_statusERKSt10error_codeEESt10shared_ptrIS5_ES6_St12_PlaceholderILi1EEEE"
 "_ZTSSt5_BindIFSt7_Mem_fnIMN14ws_websocketpp10connectionINS1_6config11asio_clientEEEFvRKSt10error_codeEEPS5_St12_PlaceholderILi1EEEE"
 "_ZTSSt5_BindIFSt7_Mem_fnIMN14ws_websocketpp10connectionINS1_6config11asio_clientEEEFvRKSt10error_codeEESt10shared_ptrIS5_ESt12_PlaceholderILi1EEEE"
 "_ZTSSt5_BindIFSt7_Mem_fnIMN14ws_websocketpp10connectionINS1_6config11asio_clientEEEFvRKSt10error_codeyEEPS5_St12_PlaceholderILi1EESD_ILi2EEEE"
 "_ZTSSt5_BindIFSt7_Mem_fnIMN14ws_websocketpp10connectionINS1_6config11asio_clientEEEFvRKSt10error_codeyEESt10shared_ptrIS5_ESt12_PlaceholderILi1EESE_ILi2EEEE"
 "_ZTSSt5_BindIFSt7_Mem_fnIMN14ws_websocketpp10connectionINS1_6config11asio_clientEEEFvvEESt10shared_ptrIS5_EEE"
 "_ZTSSt5_BindIFSt7_Mem_fnIMN14ws_websocketpp10connectionINS1_6config15asio_tls_clientEEEFvNS5_16terminate_statusERKSt10error_codeEESt10shared_ptrIS5_ES6_St12_PlaceholderILi1EEEE"
 "_ZTSSt5_BindIFSt7_Mem_fnIMN14ws_websocketpp10connectionINS1_6config15asio_tls_clientEEEFvRKSt10error_codeEEPS5_St12_PlaceholderILi1EEEE"
 "_ZTSSt5_BindIFSt7_Mem_fnIMN14ws_websocketpp10connectionINS1_6config15asio_tls_clientEEEFvRKSt10error_codeEESt10shared_ptrIS5_ESt12_PlaceholderILi1EEEE"
 "_ZTSSt5_BindIFSt7_Mem_fnIMN14ws_websocketpp10connectionINS1_6config15asio_tls_clientEEEFvRKSt10error_codeyEEPS5_St12_PlaceholderILi1EESD_ILi2EEEE"
 "_ZTSSt5_BindIFSt7_Mem_fnIMN14ws_websocketpp10connectionINS1_6config15asio_tls_clientEEEFvRKSt10error_codeyEESt10shared_ptrIS5_ESt12_PlaceholderILi1EESE_ILi2EEEE"
 "_ZTSSt5_BindIFSt7_Mem_fnIMN14ws_websocketpp10connectionINS1_6config15asio_tls_clientEEEFvvEESt10shared_ptrIS5_EEE"
 "_ZTSSt5_BindIFSt7_Mem_fnIMN14ws_websocketpp6clientINS1_6config11asio_clientEEEFvSt10shared_ptrINS1_10connectionIS4_EEERKSt10error_codeEEPS5_S9_St12_PlaceholderILi1EEEE"
 "_ZTSSt5_BindIFSt7_Mem_fnIMN14ws_websocketpp6clientINS1_6config15asio_tls_clientEEEFvSt10shared_ptrINS1_10connectionIS4_EEERKSt10error_codeEEPS5_S9_St12_PlaceholderILi1EEEE"
 "_ZTSSt5_BindIFSt7_Mem_fnIMN14ws_websocketpp9transport4asio10connectionINS1_6config11asio_client16transport_configEEEFvSt10shared_ptrIN4asio20basic_waitable_timerINSt6chrono3_V212steady_clockENSA_11wait_traitsISE_EENSA_22waitable_timer_serviceISE_SG_EEEEESt8functionIFvRKSt10error_codeEESO_EES9_IS8_ESK_SQ_St12_PlaceholderILi1EEEE"
 "_ZTSSt5_BindIFSt7_Mem_fnIMN14ws_websocketpp9transport4asio10connectionINS1_6config11asio_client16transport_configEEEFvSt8functionIFvRKSt10error_codeEESC_EESt10shared_ptrIS8_ESE_St12_PlaceholderILi1EEEE"
 "_ZTSSt5_BindIFSt7_Mem_fnIMN14ws_websocketpp9transport4asio10connectionINS1_6config15asio_tls_client16transport_configEEEFvSt10shared_ptrIN4asio20basic_waitable_timerINSt6chrono3_V212steady_clockENSA_11wait_traitsISE_EENSA_22waitable_timer_serviceISE_SG_EEEEESt8functionIFvRKSt10error_codeEESO_EES9_IS8_ESK_SQ_St12_PlaceholderILi1EEEE"
 "_ZTSSt5_BindIFSt7_Mem_fnIMN14ws_websocketpp9transport4asio10connectionINS1_6config15asio_tls_client16transport_configEEEFvSt8functionIFvRKSt10error_codeEESC_EESt10shared_ptrIS8_ESE_St12_PlaceholderILi1EEEE"
 "_ZTSSt5_BindIFSt7_Mem_fnIMN14ws_websocketpp9transport4asio8endpointINS1_6config11asio_client16transport_configEEEFvSt10shared_ptrIN4asio20basic_waitable_timerINSt6chrono3_V212steady_clockENSA_11wait_traitsISE_EENSA_22waitable_timer_serviceISE_SG_EEEEESt8functionIFvRKSt10error_codeEESO_EEPS8_SK_SQ_St12_PlaceholderILi1EEEE"
 "_ZTSSt5_BindIFSt7_Mem_fnIMN14ws_websocketpp9transport4asio8endpointINS1_6config11asio_client16transport_configEEEFvSt10shared_ptrINS3_10connectionIS7_EEES9_IN4asio20basic_waitable_timerINSt6chrono3_V212steady_clockENSD_11wait_traitsISH_EENSD_22waitable_timer_serviceISH_SJ_EEEEESt8functionIFvRKSt10error_codeEESR_EEPS8_SC_SN_ST_St12_PlaceholderILi1EEEE"
 "_ZTSSt5_BindIFSt7_Mem_fnIMN14ws_websocketpp9transport4asio8endpointINS1_6config15asio_tls_client16transport_configEEEFvSt10shared_ptrIN4asio20basic_waitable_timerINSt6chrono3_V212steady_clockENSA_11wait_traitsISE_EENSA_22waitable_timer_serviceISE_SG_EEEEESt8functionIFvRKSt10error_codeEESO_EEPS8_SK_SQ_St12_PlaceholderILi1EEEE"
 "_ZTSSt5_BindIFSt7_Mem_fnIMN14ws_websocketpp9transport4asio8endpointINS1_6config15asio_tls_client16transport_configEEEFvSt10shared_ptrINS3_10connectionIS7_EEES9_IN4asio20basic_waitable_timerINSt6chrono3_V212steady_clockENSD_11wait_traitsISH_EENSD_22waitable_timer_serviceISH_SJ_EEEEESt8functionIFvRKSt10error_codeEESR_EEPS8_SC_SN_ST_St12_PlaceholderILi1EEEE"
 "_ZTSSt8bad_cast"
 "_ZTSSt9exception"
 "_ZTTN4Rcpp8RostreamILb0EEE"
 "_ZTTN4Rcpp8RostreamILb1EEE"
 "_ZTv0_n24_N4Rcpp8RostreamILb0EED0Ev"
 "_ZTv0_n24_N4Rcpp8RostreamILb0EED1Ev"
 "_ZTv0_n24_N4Rcpp8RostreamILb1EED0Ev"
 "_ZTv0_n24_N4Rcpp8RostreamILb1EED1Ev"
 "_ZTV10ClientImplIN14ws_websocketpp6clientINS0_6config11asio_clientEEEE"
 "_ZTV10ClientImplIN14ws_websocketpp6clientINS0_6config15asio_tls_clientEEEE"
 "_ZTVN14ws_websocketpp4http9exceptionE"
 "_ZTVN14ws_websocketpp5error8categoryE"
 "_ZTVN14ws_websocketpp9exceptionE"
 "_ZTVN14ws_websocketpp9processor5error18processor_categoryE"
 "_ZTVN14ws_websocketpp9processor6hybi00INS_6config11asio_clientEEE"
 "_ZTVN14ws_websocketpp9processor6hybi00INS_6config15asio_tls_clientEEE"
 "_ZTVN14ws_websocketpp9processor6hybi07INS_6config11asio_clientEEE"
 "_ZTVN14ws_websocketpp9processor6hybi07INS_6config15asio_tls_clientEEE"
 "_ZTVN14ws_websocketpp9processor6hybi08INS_6config11asio_clientEEE"
 "_ZTVN14ws_websocketpp9processor6hybi08INS_6config15asio_tls_clientEEE"
 "_ZTVN14ws_websocketpp9processor6hybi13INS_6config11asio_clientEEE"
 "_ZTVN14ws_websocketpp9processor6hybi13INS_6config15asio_tls_clientEEE"
 "_ZTVN14ws_websocketpp9transport4asio5error8categoryE"
 "_ZTVN14ws_websocketpp9transport4asio6socket15socket_categoryE"
 "_ZTVN14ws_websocketpp9transport5error8categoryE"
 "_ZTVN4asio21invalid_service_ownerE"
 "_ZTVN4asio21stream_socket_serviceINS_2ip3tcpEEE"
 "_ZTVN4asio22service_already_existsE"
 "_ZTVN4asio22waitable_timer_serviceINSt6chrono3_V212steady_clockENS_11wait_traitsIS3_EEEE"
 "_ZTVN4asio23socket_acceptor_serviceINS_2ip3tcpEEE"
 "_ZTVN4asio2ip16bad_address_castE"
 "_ZTVN4asio2ip16resolver_serviceINS0_3tcpEEE"
 "_ZTVN4asio5error6detail12ssl_categoryE"
 "_ZTVN4asio5error6detail13misc_categoryE"
 "_ZTVN4asio6detail10win_thread4funcINS0_14select_reactor15thread_functionEEE"
 "_ZTVN4asio6detail10win_thread4funcINS0_19win_iocp_io_service21timer_thread_functionEEE"
 "_ZTVN4asio6detail10win_thread4funcINS0_21resolver_service_base22work_io_service_runnerEEE"
 "_ZTVN4asio6detail11timer_queueINS0_18chrono_time_traitsINSt6chrono3_V212steady_clockENS_11wait_traitsIS5_EEEEEE"
 "_ZTVN4asio6detail14select_reactorE"
 "_ZTVN4asio6detail14strand_serviceE"
 "_ZTVN4asio6detail15system_categoryE"
 "_ZTVN4asio6detail19win_iocp_io_serviceE"
 "_ZTVN4Rcpp10eval_errorE"
 "_ZTVN4Rcpp10RstreambufILb0EEE"
 "_ZTVN4Rcpp10RstreambufILb1EEE"
 "_ZTVN4Rcpp8RostreamILb0EEE"
 "_ZTVN4Rcpp8RostreamILb1EEE"
 "_ZTVN4Rcpp9exceptionE"
 "_ZTVSt15_Sp_counted_ptrIPN14ws_websocketpp14message_buffer5alloc15con_msg_managerINS1_7messageIS3_EEEELN9__gnu_cxx12_Lock_policyE2EE"
 "_ZTVSt15_Sp_counted_ptrIPN4asio3ssl6detail17openssl_init_base7do_initELN9__gnu_cxx12_Lock_policyE2EE"
 "_ZTVSt15_Sp_counted_ptrIPN4asio6detail9win_mutexELN9__gnu_cxx12_Lock_policyE2EE"
 "_ZTVSt15_Sp_counted_ptrIPSt6vectorIN4asio2ip20basic_resolver_entryINS2_3tcpEEESaIS5_EELN9__gnu_cxx12_Lock_policyE2EE"
 "_ZTVSt19_Sp_counted_deleterIPvN4asio6detail10socket_ops12noop_deleterESaIvELN9__gnu_cxx12_Lock_policyE2EE"
 "_ZTVSt23_Sp_counted_ptr_inplaceI10ClientImplIN14ws_websocketpp6clientINS1_6config11asio_clientEEEESaIS6_ELN9__gnu_cxx12_Lock_policyE2EE"
 "_ZTVSt23_Sp_counted_ptr_inplaceI10ClientImplIN14ws_websocketpp6clientINS1_6config15asio_tls_clientEEEESaIS6_ELN9__gnu_cxx12_Lock_policyE2EE"
 "_ZTVSt23_Sp_counted_ptr_inplaceI12WSConnectionSaIS0_ELN9__gnu_cxx12_Lock_policyE2EE"
 "_ZTVSt23_Sp_counted_ptr_inplaceIN14ws_websocketpp10connectionINS0_6config11asio_clientEEESaIS4_ELN9__gnu_cxx12_Lock_policyE2EE"
 "_ZTVSt23_Sp_counted_ptr_inplaceIN14ws_websocketpp10connectionINS0_6config15asio_tls_clientEEESaIS4_ELN9__gnu_cxx12_Lock_policyE2EE"
 "_ZTVSt23_Sp_counted_ptr_inplaceIN14ws_websocketpp14message_buffer7messageINS1_5alloc15con_msg_managerEEESaIS5_ELN9__gnu_cxx12_Lock_policyE2EE"
 "_ZTVSt23_Sp_counted_ptr_inplaceIN14ws_websocketpp3uriESaIS1_ELN9__gnu_cxx12_Lock_policyE2EE"
 "_ZTVSt23_Sp_counted_ptr_inplaceIN14ws_websocketpp9processor6hybi00INS0_6config11asio_clientEEESaIS5_ELN9__gnu_cxx12_Lock_policyE2EE"
 "_ZTVSt23_Sp_counted_ptr_inplaceIN14ws_websocketpp9processor6hybi00INS0_6config15asio_tls_clientEEESaIS5_ELN9__gnu_cxx12_Lock_policyE2EE"
 "_ZTVSt23_Sp_counted_ptr_inplaceIN14ws_websocketpp9processor6hybi07INS0_6config11asio_clientEEESaIS5_ELN9__gnu_cxx12_Lock_policyE2EE"
 "_ZTVSt23_Sp_counted_ptr_inplaceIN14ws_websocketpp9processor6hybi07INS0_6config15asio_tls_clientEEESaIS5_ELN9__gnu_cxx12_Lock_policyE2EE"
 "_ZTVSt23_Sp_counted_ptr_inplaceIN14ws_websocketpp9processor6hybi08INS0_6config11asio_clientEEESaIS5_ELN9__gnu_cxx12_Lock_policyE2EE"
 "_ZTVSt23_Sp_counted_ptr_inplaceIN14ws_websocketpp9processor6hybi08INS0_6config15asio_tls_clientEEESaIS5_ELN9__gnu_cxx12_Lock_policyE2EE"
 "_ZTVSt23_Sp_counted_ptr_inplaceIN14ws_websocketpp9processor6hybi13INS0_6config11asio_clientEEESaIS5_ELN9__gnu_cxx12_Lock_policyE2EE"
 "_ZTVSt23_Sp_counted_ptr_inplaceIN14ws_websocketpp9processor6hybi13INS0_6config15asio_tls_clientEEESaIS5_ELN9__gnu_cxx12_Lock_policyE2EE"
 "_ZTVSt23_Sp_counted_ptr_inplaceIN4asio10io_service6strandESaIS2_ELN9__gnu_cxx12_Lock_policyE2EE"
 "_ZTVSt23_Sp_counted_ptr_inplaceIN4asio19basic_stream_socketINS0_2ip3tcpENS0_21stream_socket_serviceIS3_EEEESaIS6_ELN9__gnu_cxx12_Lock_policyE2EE"
 "_ZTVSt23_Sp_counted_ptr_inplaceIN4asio20basic_waitable_timerINSt6chrono3_V212steady_clockENS0_11wait_traitsIS4_EENS0_22waitable_timer_serviceIS4_S6_EEEESaIS9_ELN9__gnu_cxx12_Lock_policyE2EE"
 "_ZTVSt23_Sp_counted_ptr_inplaceIN4asio21basic_socket_acceptorINS0_2ip3tcpENS0_23socket_acceptor_serviceIS3_EEEESaIS6_ELN9__gnu_cxx12_Lock_policyE2EE"
 "_ZTVSt23_Sp_counted_ptr_inplaceIN4asio2ip14basic_resolverINS1_3tcpENS1_16resolver_serviceIS3_EEEESaIS6_ELN9__gnu_cxx12_Lock_policyE2EE"
 "_ZTVSt23_Sp_counted_ptr_inplaceIN4asio3ssl6streamINS0_19basic_stream_socketINS0_2ip3tcpENS0_21stream_socket_serviceIS5_EEEEEESaIS9_ELN9__gnu_cxx12_Lock_policyE2EE"
 "_ZTVSt23_Sp_counted_ptr_inplaceIN4asio3ssl7contextESaIS2_ELN9__gnu_cxx12_Lock_policyE2EE"
 "_ZTVSt23_Sp_counted_ptr_inplaceISsSaISsELN9__gnu_cxx12_Lock_policyE2EE"
 "_ZZ11stack_tracePKciE3fun"
 "_ZZ20rcpp_set_stack_traceP7SEXPRECE3fun"
 "_ZZ7dataptrP7SEXPRECE3fun"
 "_ZZN14ws_websocketpp3lib3net7_htonllEyE3typ"
 "_ZZN14ws_websocketpp3md510md5_finishEPNS0_11md5_state_sEPhE3pad"
 "_ZZN14ws_websocketpp5error12get_categoryEvE8instance"
 "_ZZN14ws_websocketpp9processor5error22get_processor_categoryEvE8instance"
 "_ZZN14ws_websocketpp9transport4asio5error12get_categoryEvE8instance"
 "_ZZN14ws_websocketpp9transport4asio6socket19get_socket_categoryEvE8instance"
 "_ZZN14ws_websocketpp9transport5error12get_categoryEvE8instance"
 "_ZZN4asio15system_categoryEvE8instance"
 "_ZZN4asio3ssl6detail17openssl_init_base8instanceEvE4init"
 "_ZZN4asio3ssl6detail6engine12accept_mutexEvE5mutex"
 "_ZZN4asio5error16get_ssl_categoryEvE8instance"
 "_ZZN4asio5error17get_misc_categoryEvE8instance"
 "_ZZN4asio6detail8hash_mapIyNS0_16reactor_op_queueIyE11mapped_typeEE9hash_sizeEyE5sizes"
